(dp0
S'cbcb'
p1
(dp2
S'digit2successes'
p3
I1
sS'logins'
p4
I2
sS'digit0successes'
p5
I1
sS'digit3successes'
p6
I1
sS'digit4successes'
p7
I1
sS'digit0attempts'
p8
I2
sS'digit3attempts'
p9
I2
sS'digit2attempts'
p10
I2
sS'digit1attempts'
p11
I2
sS'numCoins'
p12
I5
sS'digit1successes'
p13
I1
sS'digit4attempts'
p14
I2
sS'currDigitDict'
p15
(lp16
I0
aI1
aI2
aI3
aI4
aI5
assS'oooooooooo'
p17
(dp18
S'digit2successes'
p19
I1
sS'logins'
p20
I1
sS'digit0attempts'
p21
I2
sS'digit1attempts'
p22
I2
sS'digit2attempts'
p23
I2
sS'numCoins'
p24
I2
sS'digit1successes'
p25
I1
sS'currDigitDict'
p26
(lp27
I0
aI1
aI2
assS'kabba'
p28
(dp29
S'digit2successes'
p30
I1
sS'logins'
p31
I1
sS'digit0successes'
p32
I1
sS'digit3successes'
p33
I1
sS'digit4successes'
p34
I1
sS'digit0attempts'
p35
I2
sS'digit3attempts'
p36
I2
sS'digit2attempts'
p37
I2
sS'digit1attempts'
p38
I2
sS'numCoins'
p39
I5
sS'digit1successes'
p40
I1
sS'digit4attempts'
p41
I2
sS'currDigitDict'
p42
(lp43
I0
aI1
aI2
aI3
aI4
aI5
assS'ljlkjjlkj'
p44
(dp45
S'digit2successes'
p46
I1
sS'logins'
p47
I1
sS'digit0successes'
p48
I1
sS'digit3successes'
p49
I1
sS'digit0attempts'
p50
I2
sS'digit3attempts'
p51
I2
sS'digit2attempts'
p52
I2
sS'digit1attempts'
p53
I2
sS'numCoins'
p54
I4
sS'digit1successes'
p55
I1
sS'currDigitDict'
p56
(lp57
I0
aI1
aI2
aI3
aI4
aI5
assS'lsdfjsdlkfj'
p58
(dp59
S'logins'
p60
I1
sS'digit0attempts'
p61
I2
sS'numCoins'
p62
I0
sS'currDigitDict'
p63
(lp64
I0
aI1
aI2
assS'cbsdf'
p65
(dp66
S'digit2successes'
p67
I1
sS'digit0attempts'
p68
I2
sS'logins'
p69
I1
sS'digit0successes'
p70
I1
sS'digit1attempts'
p71
I2
sS'digit2attempts'
p72
I2
sS'numCoins'
p73
I3
sS'digit1successes'
p74
I1
sS'currDigitDict'
p75
(lp76
I0
aI1
aI2
aI3
aI4
aI5
assS'ksadlfjasdlk'
p77
(dp78
S'digit2successes'
p79
I1
sS'logins'
p80
I1
sS'digit0successes'
p81
I1
sS'digit3successes'
p82
I1
sS'digit5successes'
p83
I1
sS'digit4attempts'
p84
I2
sS'digit0attempts'
p85
I2
sS'digit3attempts'
p86
I2
sS'digit2attempts'
p87
I2
sS'digit1attempts'
p88
I2
sS'numCoins'
p89
I6
sS'digit5attempts'
p90
I2
sS'digit1successes'
p91
I1
sS'digit4successes'
p92
I1
sS'currDigitDict'
p93
(lp94
I0
aI1
aI2
aI3
aI4
aI5
aI6
aI7
aI8
aI9
assS'lskdfjlsdkjflskdj'
p95
(dp96
S'digit2successes'
p97
I1
sS'logins'
p98
I1
sS'digit0successes'
p99
I1
sS'digit3successes'
p100
I1
sS'digit3attempts'
p101
I2
sS'digit5successes'
p102
I1
sS'digit4successes'
p103
I1
sS'digit0attempts'
p104
I2
sS'digit1attempts'
p105
I2
sS'digit2attempts'
p106
I2
sS'digit5attempts'
p107
I2
sS'numCoins'
p108
I6
sS'digit1successes'
p109
I1
sS'digit4attempts'
p110
I2
sS'currDigitDict'
p111
(lp112
I0
aI1
aI2
aI3
aI4
aI5
aI6
aI7
aI8
aI9
assS'lsdjfsdjflsd'
p113
(dp114
S'digit0attempts'
p115
I2
sS'logins'
p116
I1
sS'digit0successes'
p117
I1
sS'digit1attempts'
p118
I2
sS'numCoins'
p119
I2
sS'digit1successes'
p120
I1
sS'currDigitDict'
p121
(lp122
I0
aI1
aI2
ass.