(dp0
S'Turkey'
p1
(dp2
S'logins'
p3
I1
sS'digit0attempts'
p4
I2
sS'digit1attempts'
p5
I2
sS'digit2attempts'
p6
I2
sS'numCoins'
p7
I0
sS'currDigitDict'
p8
(lp9
I0
aI1
aI2
assS''
p10
(dp11
S'logins'
p12
I2
sS'currDigitDict'
p13
(lp14
I0
aI1
aI2
asS'numCoins'
p15
I0
ssS'hehehe'
p16
(dp17
S'digit2successes'
p18
I1
sS'logins'
p19
I1
sS'digit0successes'
p20
I1
sS'digit0attempts'
p21
I2
sS'digit1attempts'
p22
I2
sS'digit2attempts'
p23
I2
sS'numCoins'
p24
I3
sS'digit1successes'
p25
I1
sS'currDigitDict'
p26
(lp27
I0
aI1
aI2
aI3
aI4
aI5
assS'Jackson'
p28
(dp29
S'digit2successes'
p30
I1
sS'logins'
p31
I1
sS'digit0successes'
p32
I1
sS'digit3successes'
p33
I1
sS'digit0attempts'
p34
I2
sS'digit3attempts'
p35
I2
sS'digit2attempts'
p36
I2
sS'digit1attempts'
p37
I2
sS'numCoins'
p38
I4
sS'digit1successes'
p39
I1
sS'currDigitDict'
p40
(lp41
I0
aI1
aI2
aI3
aI4
aI5
assS'Testuser'
p42
(dp43
S'logins'
p44
I1
sS'digit0successes'
p45
I1
sS'digit0attempts'
p46
I2
sS'digit1attempts'
p47
I2
sS'numCoins'
p48
I2
sS'digit1successes'
p49
I1
sS'currDigitDict'
p50
(lp51
I0
aI1
aI2
assS'oohh'
p52
(dp53
S'digit6successes'
p54
I1
sS'digit1attempts'
p55
I3
sS'digit5successes'
p56
I1
sS'digit9attempts'
p57
I2
sS'digit3attempts'
p58
I3
sS'numCoins'
p59
I14
sS'digit4successes'
p60
I1
sS'currDigitDict'
p61
(lp62
I0
aI1
aI2
aI3
aI4
aI5
aI6
aI7
aI8
aI9
asS'digit7successes'
p63
I1
sS'digit6attempts'
p64
I2
sS'digit8successes'
p65
I1
sS'digit5attempts'
p66
I2
sS'digit8attempts'
p67
I2
sS'digit1successes'
p68
I2
sS'digit2successes'
p69
I2
sS'logins'
p70
I1
sS'digit2attempts'
p71
I3
sS'digit4attempts'
p72
I2
sS'digit9successes'
p73
I1
sS'digit0successes'
p74
I2
sS'digit3successes'
p75
I2
sS'digit7attempts'
p76
I2
sS'digit0attempts'
p77
I3
ssS'dababy'
p78
(dp79
S'digit2successes'
p80
I1
sS'logins'
p81
I1
sS'digit0successes'
p82
I2
sS'digit3successes'
p83
I2
sS'digit5successes'
p84
I1
sS'digit0attempts'
p85
I3
sS'digit3attempts'
p86
I3
sS'digit2attempts'
p87
I3
sS'digit1attempts'
p88
I3
sS'numCoins'
p89
I14
sS'digit5attempts'
p90
I2
sS'digit1successes'
p91
I2
sS'digit4attempts'
p92
I2
sS'currDigitDict'
p93
(lp94
I0
aI1
aI2
aI3
aI4
aI5
assS'ijcioffi'
p95
(dp96
S'logins'
p97
I1
sS'digit0successes'
p98
I2
sS'digit0attempts'
p99
I3
sS'digit1attempts'
p100
I2
sS'digit2attempts'
p101
I2
sS'numCoins'
p102
I1
sS'currDigitDict'
p103
(lp104
I0
aI1
aI2
assS'testman'
p105
(dp106
S'digit2successes'
p107
I1
sS'logins'
p108
I1
sS'digit0successes'
p109
I1
sS'digit3successes'
p110
I1
sS'digit0attempts'
p111
I3
sS'digit3attempts'
p112
I2
sS'digit2attempts'
p113
I3
sS'digit1attempts'
p114
I3
sS'numCoins'
p115
I4
sS'digit1successes'
p116
I1
sS'currDigitDict'
p117
(lp118
I0
aI1
aI2
aI3
aI4
aI5
assS'jabaaaka'
p119
(dp120
S'digit9successes'
p121
I1
sS'digit2successes'
p122
I1
sS'digit4attempts'
p123
I2
sS'digit1attempts'
p124
I2
sS'digit0successes'
p125
I2
sS'digit3successes'
p126
I1
sS'digit5successes'
p127
I1
sS'digit6attempts'
p128
I2
sS'digit9attempts'
p129
I2
sS'digit0attempts'
p130
I3
sS'digit3attempts'
p131
I2
sS'digit2attempts'
p132
I2
sS'digit5attempts'
p133
I2
sS'digit7attempts'
p134
I2
sS'numCoins'
p135
I2
sS'digit8attempts'
p136
I2
sS'digit1successes'
p137
I1
sS'logins'
p138
I1
sS'digit4successes'
p139
I1
sS'currDigitDict'
p140
(lp141
I0
aI1
aI2
aI3
aI4
aI5
aI6
aI7
aI8
aI9
assS'lovable'
p142
(dp143
S'digit2successes'
p144
I1
sS'digit6successes'
p145
I1
sS'digit1attempts'
p146
I3
sS'digit0successes'
p147
I2
sS'digit3successes'
p148
I1
sS'digit5successes'
p149
I1
sS'digit6attempts'
p150
I2
sS'digit9attempts'
p151
I2
sS'logins'
p152
I1
sS'digit3attempts'
p153
I2
sS'digit2attempts'
p154
I3
sS'digit5attempts'
p155
I2
sS'digit7attempts'
p156
I2
sS'numCoins'
p157
I0
sS'digit0attempts'
p158
I3
sS'digit8attempts'
p159
I2
sS'digit1successes'
p160
I2
sS'digit4successes'
p161
I1
sS'digit4attempts'
p162
I2
sS'currDigitDict'
p163
(lp164
I0
aI1
aI2
aI3
aI4
aI5
aI6
aI7
aI8
aI9
assS'sdfdsfsd'
p165
(dp166
S'digit6successes'
p167
I2
sS'digit1attempts'
p168
I4
sS'digit5successes'
p169
I2
sS'digit9attempts'
p170
I3
sS'digit3attempts'
p171
I3
sS'numCoins'
p172
I36
sS'digit4successes'
p173
I2
sS'currDigitDict'
p174
(lp175
I0
aI1
aI2
aI3
aI4
aI5
aI6
aI7
aI8
aI9
asS'digit7successes'
p176
I1
sS'digit6attempts'
p177
I3
sS'digit8successes'
p178
I2
sS'digit5attempts'
p179
I3
sS'digit8attempts'
p180
I3
sS'digit1successes'
p181
I3
sS'digit2successes'
p182
I3
sS'logins'
p183
I1
sS'digit2attempts'
p184
I4
sS'digit4attempts'
p185
I3
sS'digit9successes'
p186
I2
sS'digit0successes'
p187
I3
sS'digit3successes'
p188
I1
sS'digit7attempts'
p189
I3
sS'digit0attempts'
p190
I4
ssS'jljkj'
p191
(dp192
S'digit2successes'
p193
I1
sS'logins'
p194
I1
sS'digit0successes'
p195
I1
sS'digit3successes'
p196
I1
sS'digit5successes'
p197
I1
sS'digit4successes'
p198
I1
sS'digit0attempts'
p199
I2
sS'digit3attempts'
p200
I2
sS'digit2attempts'
p201
I2
sS'digit1attempts'
p202
I2
sS'numCoins'
p203
I10
sS'digit5attempts'
p204
I2
sS'digit1successes'
p205
I1
sS'digit4attempts'
p206
I2
sS'currDigitDict'
p207
(lp208
I0
aI1
aI2
aI3
aI4
aI5
aI6
aI7
aI8
aI9
assS'bnksdfl'
p209
(dp210
S'digit2successes'
p211
I1
sS'logins'
p212
I1
sS'digit0successes'
p213
I2
sS'digit3successes'
p214
I1
sS'digit5successes'
p215
I1
sS'digit0attempts'
p216
I3
sS'digit3attempts'
p217
I2
sS'digit2attempts'
p218
I2
sS'digit1attempts'
p219
I3
sS'numCoins'
p220
I11
sS'digit5attempts'
p221
I2
sS'digit1successes'
p222
I2
sS'digit4attempts'
p223
I2
sS'currDigitDict'
p224
(lp225
I0
aI1
aI2
aI3
aI4
aI5
assS'connor '
p226
(dp227
S'digit2successes'
p228
I1
sS'digit0attempts'
p229
I2
sS'logins'
p230
I1
sS'digit0successes'
p231
I1
sS'digit1attempts'
p232
I2
sS'digit2attempts'
p233
I3
sS'numCoins'
p234
I2
sS'digit1successes'
p235
I1
sS'currDigitDict'
p236
(lp237
I0
aI1
aI2
aI3
aI4
aI5
assS'Tina'
p238
(dp239
S'digit2successes'
p240
I1
sS'logins'
p241
I1
sS'digit0successes'
p242
I2
sS'digit3successes'
p243
I1
sS'digit5successes'
p244
I1
sS'digit0attempts'
p245
I3
sS'digit3attempts'
p246
I3
sS'digit2attempts'
p247
I2
sS'digit1attempts'
p248
I2
sS'numCoins'
p249
I5
sS'digit5attempts'
p250
I2
sS'digit1successes'
p251
I1
sS'currDigitDict'
p252
(lp253
I0
aI1
aI2
aI3
aI4
aI5
assS'hallaaaaa'
p254
(dp255
S'digit2successes'
p256
I2
sS'logins'
p257
I1
sS'digit0successes'
p258
I3
sS'digit3successes'
p259
I1
sS'digit4successes'
p260
I2
sS'digit0attempts'
p261
I6
sS'digit3attempts'
p262
I3
sS'digit2attempts'
p263
I5
sS'digit1attempts'
p264
I5
sS'numCoins'
p265
I3
sS'digit5attempts'
p266
I3
sS'digit1successes'
p267
I3
sS'digit4attempts'
p268
I3
sS'currDigitDict'
p269
(lp270
I0
aI1
aI2
aI3
aI4
aI5
assS'Isaac'
p271
(dp272
S'logins'
p273
I2
sS'digit0attempts'
p274
I2
sS'digit1attempts'
p275
I2
sS'numCoins'
p276
I1
sS'digit1successes'
p277
I1
sS'currDigitDict'
p278
(lp279
I0
aI1
aI2
assS'kabbito'
p280
(dp281
S'digit2successes'
p282
I1
sS'logins'
p283
I1
sS'digit0attempts'
p284
I2
sS'digit1attempts'
p285
I2
sS'digit2attempts'
p286
I2
sS'numCoins'
p287
I2
sS'digit1successes'
p288
I1
sS'currDigitDict'
p289
(lp290
I0
aI1
aI2
assS'slkdfjasldkf'
p291
(dp292
S'digit2successes'
p293
I1
sS'logins'
p294
I1
sS'digit0successes'
p295
I1
sS'digit3successes'
p296
I1
sS'digit4attempts'
p297
I2
sS'digit0attempts'
p298
I2
sS'digit3attempts'
p299
I2
sS'digit2attempts'
p300
I2
sS'digit1attempts'
p301
I2
sS'numCoins'
p302
I9
sS'digit1successes'
p303
I1
sS'digit4successes'
p304
I1
sS'currDigitDict'
p305
(lp306
I0
aI1
aI2
aI3
aI4
aI5
assS'sdfdsfdsfsd'
p307
(dp308
S'digit2successes'
p309
I1
sS'logins'
p310
I1
sS'digit0successes'
p311
I1
sS'digit0attempts'
p312
I2
sS'digit1attempts'
p313
I2
sS'digit2attempts'
p314
I2
sS'numCoins'
p315
I3
sS'digit1successes'
p316
I1
sS'currDigitDict'
p317
(lp318
I0
aI1
aI2
aI3
aI4
aI5
assS'kevin'
p319
(dp320
S'logins'
p321
I1
sS'currDigitDict'
p322
(lp323
I0
aI1
aI2
asS'numCoins'
p324
I0
ssS'Henlo'
p325
(dp326
S'digit2successes'
p327
I1
sS'logins'
p328
I1
sS'digit0successes'
p329
I1
sS'digit0attempts'
p330
I2
sS'digit1attempts'
p331
I2
sS'digit2attempts'
p332
I2
sS'numCoins'
p333
I3
sS'digit1successes'
p334
I1
sS'currDigitDict'
p335
(lp336
I0
aI1
aI2
aI3
aI4
aI5
assS'jose'
p337
(dp338
S'digit6successes'
p339
I2
sS'digit1attempts'
p340
I5
sS'digit5successes'
p341
I3
sS'digit9attempts'
p342
I4
sS'digit3attempts'
p343
I4
sS'numCoins'
p344
I0
sS'digit4successes'
p345
I3
sS'currDigitDict'
p346
(lp347
I0
aI1
aI2
aI3
aI4
aI5
aI6
aI7
aI8
aI9
asS'digit7successes'
p348
I1
sS'digit6attempts'
p349
I4
sS'digit8successes'
p350
I1
sS'digit5attempts'
p351
I4
sS'digit8attempts'
p352
I4
sS'digit1successes'
p353
I3
sS'digit2successes'
p354
I3
sS'logins'
p355
I1
sS'digit2attempts'
p356
I4
sS'digit4attempts'
p357
I4
sS'digit0successes'
p358
I3
sS'digit3successes'
p359
I3
sS'digit7attempts'
p360
I4
sS'digit0attempts'
p361
I5
ssS'Mike'
p362
(dp363
S'digit0attempts'
p364
I2
sS'logins'
p365
I1
sS'digit0successes'
p366
I1
sS'digit1attempts'
p367
I2
sS'numCoins'
p368
I2
sS'digit1successes'
p369
I1
sS'currDigitDict'
p370
(lp371
I0
aI1
aI2
assS'whatup'
p372
(dp373
S'digit6successes'
p374
I1
sS'digit1attempts'
p375
I6
sS'digit5successes'
p376
I2
sS'digit9attempts'
p377
I4
sS'digit3attempts'
p378
I4
sS'numCoins'
p379
I3
sS'digit4successes'
p380
I1
sS'currDigitDict'
p381
(lp382
I0
aI1
aI2
aI3
aI4
aI5
aI6
aI7
aI8
aI9
asS'digit7successes'
p383
I3
sS'digit6attempts'
p384
I4
sS'digit8successes'
p385
I2
sS'digit5attempts'
p386
I4
sS'digit8attempts'
p387
I4
sS'digit1successes'
p388
I4
sS'digit2successes'
p389
I1
sS'logins'
p390
I1
sS'digit2attempts'
p391
I6
sS'digit4attempts'
p392
I4
sS'digit9successes'
p393
I3
sS'digit0successes'
p394
I3
sS'digit3successes'
p395
I2
sS'digit7attempts'
p396
I4
sS'digit0attempts'
p397
I6
ssS'plzwork239420384'
p398
(dp399
S'digit6successes'
p400
I1
sS'digit1attempts'
p401
I6
sS'digit5successes'
p402
I1
sS'digit9attempts'
p403
I2
sS'digit3attempts'
p404
I3
sS'numCoins'
p405
I2
sS'digit4successes'
p406
I2
sS'currDigitDict'
p407
(lp408
I0
aI1
aI2
aI3
aI4
aI5
aI6
aI7
aI8
aI9
asS'digit7successes'
p409
I1
sS'digit6attempts'
p410
I2
sS'digit8successes'
p411
I1
sS'digit5attempts'
p412
I2
sS'digit8attempts'
p413
I2
sS'digit1successes'
p414
I4
sS'digit2successes'
p415
I2
sS'logins'
p416
I1
sS'digit2attempts'
p417
I7
sS'digit4attempts'
p418
I3
sS'digit9successes'
p419
I1
sS'digit0successes'
p420
I3
sS'digit3successes'
p421
I2
sS'digit7attempts'
p422
I2
sS'digit0attempts'
p423
I5
ssS'lsdfjsd'
p424
(dp425
S'digit9successes'
p426
I1
sS'digit2successes'
p427
I3
sS'digit8successes'
p428
I1
sS'logins'
p429
I1
sS'digit0successes'
p430
I3
sS'digit3successes'
p431
I1
sS'digit3attempts'
p432
I3
sS'digit5successes'
p433
I1
sS'digit4successes'
p434
I2
sS'digit9attempts'
p435
I2
sS'digit0attempts'
p436
I4
sS'digit1attempts'
p437
I4
sS'digit2attempts'
p438
I4
sS'digit5attempts'
p439
I3
sS'digit7attempts'
p440
I2
sS'numCoins'
p441
I4
sS'digit8attempts'
p442
I2
sS'digit1successes'
p443
I2
sS'digit6attempts'
p444
I2
sS'digit4attempts'
p445
I3
sS'currDigitDict'
p446
(lp447
I0
aI1
aI2
aI3
aI4
aI5
aI6
aI7
aI8
aI9
assS'Tester'
p448
(dp449
S'logins'
p450
I1
sS'digit0attempts'
p451
I2
sS'numCoins'
p452
I0
sS'currDigitDict'
p453
(lp454
I0
aI1
aI2
assS'Vanessa'
p455
(dp456
S'digit6successes'
p457
I1
sS'digit1attempts'
p458
I3
sS'digit5successes'
p459
I1
sS'digit9attempts'
p460
I2
sS'digit3attempts'
p461
I3
sS'numCoins'
p462
I4
sS'digit4successes'
p463
I1
sS'currDigitDict'
p464
(lp465
I0
aI1
aI2
aI3
aI4
aI5
aI6
aI7
aI8
aI9
asS'digit7successes'
p466
I1
sS'digit6attempts'
p467
I2
sS'digit8successes'
p468
I1
sS'digit5attempts'
p469
I2
sS'digit8attempts'
p470
I2
sS'digit1successes'
p471
I2
sS'digit2successes'
p472
I2
sS'logins'
p473
I2
sS'digit2attempts'
p474
I3
sS'digit4attempts'
p475
I2
sS'digit9successes'
p476
I1
sS'digit0successes'
p477
I2
sS'digit3successes'
p478
I2
sS'digit7attempts'
p479
I2
sS'digit0attempts'
p480
I3
ssS'javathehut'
p481
(dp482
S'digit7successes'
p483
I1
sS'digit2successes'
p484
I2
sS'digit4attempts'
p485
I3
sS'digit6successes'
p486
I2
sS'digit1attempts'
p487
I4
sS'digit0successes'
p488
I1
sS'digit3successes'
p489
I2
sS'digit5successes'
p490
I2
sS'digit6attempts'
p491
I3
sS'digit9attempts'
p492
I3
sS'logins'
p493
I1
sS'digit3attempts'
p494
I3
sS'digit2attempts'
p495
I3
sS'digit5attempts'
p496
I3
sS'digit7attempts'
p497
I3
sS'numCoins'
p498
I0
sS'digit0attempts'
p499
I4
sS'digit8attempts'
p500
I3
sS'digit1successes'
p501
I2
sS'digit4successes'
p502
I2
sS'currDigitDict'
p503
(lp504
I0
aI1
aI2
aI3
aI4
aI5
aI6
aI7
aI8
aI9
assS'Andrew'
p505
(dp506
S'logins'
p507
I1
sS'digit0attempts'
p508
I2
sS'currDigitDict'
p509
(lp510
I0
aI1
aI2
asS'numCoins'
p511
I1
sS'digit0successes'
p512
I1
ssS'cdscsdc'
p513
(dp514
S'digit2successes'
p515
I2
sS'logins'
p516
I1
sS'digit0successes'
p517
I2
sS'digit3successes'
p518
I1
sS'digit0attempts'
p519
I3
sS'digit3attempts'
p520
I2
sS'digit2attempts'
p521
I3
sS'digit1attempts'
p522
I3
sS'numCoins'
p523
I9
sS'digit1successes'
p524
I1
sS'currDigitDict'
p525
(lp526
I0
aI1
aI2
aI3
aI4
aI5
assS'brandon'
p527
(dp528
S'digit0attempts'
p529
I2
sS'logins'
p530
I1
sS'digit0successes'
p531
I1
sS'digit1attempts'
p532
I2
sS'digit2attempts'
p533
I2
sS'numCoins'
p534
I1
sS'digit1successes'
p535
I1
sS'currDigitDict'
p536
(lp537
I0
aI1
aI2
assS'plzwork1934'
p538
(dp539
S'logins'
p540
I1
sS'numCoins'
p541
I0
sS'currDigitDict'
p542
(lp543
I0
aI1
aI2
assS'sdlfjdslkfjsdlk'
p544
(dp545
S'digit7successes'
p546
I1
sS'digit2successes'
p547
I4
sS'digit4attempts'
p548
I5
sS'digit6successes'
p549
I1
sS'digit1attempts'
p550
I5
sS'digit0successes'
p551
I3
sS'digit3successes'
p552
I4
sS'digit5successes'
p553
I2
sS'digit6attempts'
p554
I2
sS'logins'
p555
I1
sS'digit3attempts'
p556
I5
sS'digit2attempts'
p557
I5
sS'digit5attempts'
p558
I5
sS'digit7attempts'
p559
I2
sS'numCoins'
p560
I8
sS'digit0attempts'
p561
I5
sS'digit8attempts'
p562
I2
sS'digit1successes'
p563
I4
sS'digit4successes'
p564
I1
sS'currDigitDict'
p565
(lp566
I0
aI1
aI2
aI3
aI4
aI5
aI6
aI7
aI8
aI9
assS'Joe'
p567
(dp568
S'digit1attempts'
p569
I2
sS'digit5successes'
p570
I1
sS'digit9attempts'
p571
I2
sS'digit3attempts'
p572
I2
sS'numCoins'
p573
I7
sS'digit4successes'
p574
I1
sS'currDigitDict'
p575
(lp576
I0
aI1
aI2
aI3
aI4
aI5
aI6
aI7
aI8
aI9
asS'digit7successes'
p577
I1
sS'digit6attempts'
p578
I2
sS'digit8successes'
p579
I1
sS'digit5attempts'
p580
I2
sS'digit8attempts'
p581
I2
sS'digit1successes'
p582
I1
sS'digit2successes'
p583
I1
sS'logins'
p584
I1
sS'digit2attempts'
p585
I2
sS'digit4attempts'
p586
I2
sS'digit9successes'
p587
I1
sS'digit0successes'
p588
I1
sS'digit3successes'
p589
I1
sS'digit7attempts'
p590
I2
sS'digit0attempts'
p591
I3
ssS'tina'
p592
(dp593
S'logins'
p594
I1
sS'currDigitDict'
p595
(lp596
I0
aI1
aI2
asS'numCoins'
p597
I0
ssS'kaboobap'
p598
(dp599
S'digit2successes'
p600
I2
sS'digit6successes'
p601
I1
sS'logins'
p602
I1
sS'digit0successes'
p603
I2
sS'digit3successes'
p604
I1
sS'digit5successes'
p605
I1
sS'digit6attempts'
p606
I2
sS'digit0attempts'
p607
I4
sS'digit3attempts'
p608
I2
sS'digit2attempts'
p609
I3
sS'digit1attempts'
p610
I2
sS'numCoins'
p611
I9
sS'digit5attempts'
p612
I2
sS'digit1successes'
p613
I1
sS'digit4successes'
p614
I1
sS'digit4attempts'
p615
I2
sS'currDigitDict'
p616
(lp617
I0
aI1
aI2
aI3
aI4
aI5
aI6
aI7
aI8
aI9
assS'test'
p618
(dp619
S'digit2successes'
p620
I1
sS'logins'
p621
I1
sS'digit0successes'
p622
I1
sS'digit3successes'
p623
I1
sS'digit0attempts'
p624
I2
sS'digit3attempts'
p625
I2
sS'digit2attempts'
p626
I2
sS'digit1attempts'
p627
I2
sS'numCoins'
p628
I4
sS'digit1successes'
p629
I1
sS'currDigitDict'
p630
(lp631
I0
aI1
aI2
aI3
aI4
aI5
assS'bahookd'
p632
(dp633
S'digit6successes'
p634
I1
sS'digit1attempts'
p635
I2
sS'digit5successes'
p636
I1
sS'digit9attempts'
p637
I2
sS'digit3attempts'
p638
I2
sS'numCoins'
p639
I22
sS'digit4successes'
p640
I1
sS'currDigitDict'
p641
(lp642
I0
aI1
aI2
aI3
aI4
aI5
aI6
aI7
aI8
aI9
asS'digit7successes'
p643
I1
sS'digit6attempts'
p644
I2
sS'digit8successes'
p645
I1
sS'digit5attempts'
p646
I2
sS'digit8attempts'
p647
I2
sS'digit1successes'
p648
I1
sS'digit2successes'
p649
I1
sS'logins'
p650
I1
sS'digit2attempts'
p651
I2
sS'digit4attempts'
p652
I2
sS'digit9successes'
p653
I1
sS'digit0successes'
p654
I1
sS'digit3successes'
p655
I1
sS'digit7attempts'
p656
I2
sS'digit0attempts'
p657
I3
ssS'tesrboy'
p658
(dp659
S'logins'
p660
I1
sS'digit0attempts'
p661
I2
sS'currDigitDict'
p662
(lp663
I0
aI1
aI2
asS'numCoins'
p664
I1
sS'digit0successes'
p665
I1
ssS'okokok'
p666
(dp667
S'digit2successes'
p668
I1
sS'logins'
p669
I1
sS'digit0successes'
p670
I1
sS'digit0attempts'
p671
I2
sS'digit1attempts'
p672
I2
sS'digit2attempts'
p673
I2
sS'numCoins'
p674
I3
sS'digit1successes'
p675
I1
sS'currDigitDict'
p676
(lp677
I0
aI1
aI2
aI3
aI4
aI5
assS'jokaman'
p678
(dp679
S'digit2successes'
p680
I2
sS'digit4attempts'
p681
I3
sS'digit6successes'
p682
I1
sS'digit1attempts'
p683
I3
sS'digit0successes'
p684
I1
sS'digit3successes'
p685
I1
sS'digit5successes'
p686
I1
sS'digit6attempts'
p687
I2
sS'digit9attempts'
p688
I2
sS'digit8successes'
p689
I1
sS'digit3attempts'
p690
I3
sS'digit2attempts'
p691
I3
sS'digit5attempts'
p692
I2
sS'digit7attempts'
p693
I2
sS'numCoins'
p694
I1
sS'digit0attempts'
p695
I3
sS'digit8attempts'
p696
I2
sS'digit1successes'
p697
I1
sS'logins'
p698
I1
sS'digit4successes'
p699
I2
sS'currDigitDict'
p700
(lp701
I0
aI1
aI2
aI3
aI4
aI5
aI6
aI7
aI8
aI9
assS'kevinyang'
p702
(dp703
S'digit0attempts'
p704
I3
sS'logins'
p705
I1
sS'digit0successes'
p706
I1
sS'digit1attempts'
p707
I2
sS'digit2attempts'
p708
I2
sS'numCoins'
p709
I1
sS'digit1successes'
p710
I1
sS'currDigitDict'
p711
(lp712
I0
aI1
aI2
assS'habbas'
p713
(dp714
S'digit2successes'
p715
I1
sS'logins'
p716
I1
sS'digit0successes'
p717
I1
sS'digit3successes'
p718
I1
sS'digit0attempts'
p719
I2
sS'digit3attempts'
p720
I2
sS'digit2attempts'
p721
I2
sS'digit1attempts'
p722
I2
sS'numCoins'
p723
I4
sS'digit1successes'
p724
I1
sS'currDigitDict'
p725
(lp726
I0
aI1
aI2
aI3
aI4
aI5
assS'norman'
p727
(dp728
S'digit2successes'
p729
I1
sS'logins'
p730
I1
sS'digit0successes'
p731
I1
sS'digit3successes'
p732
I1
sS'digit0attempts'
p733
I2
sS'digit3attempts'
p734
I2
sS'digit2attempts'
p735
I2
sS'digit1attempts'
p736
I2
sS'numCoins'
p737
I4
sS'digit1successes'
p738
I1
sS'currDigitDict'
p739
(lp740
I0
aI1
aI2
aI3
aI4
aI5
assS'yaha'
p741
(dp742
S'logins'
p743
I1
sS'currDigitDict'
p744
(lp745
I0
aI1
aI2
asS'numCoins'
p746
I0
ssS'newUserBaddd'
p747
(dp748
S'digit6successes'
p749
I3
sS'digit1attempts'
p750
I7
sS'digit5successes'
p751
I5
sS'digit9attempts'
p752
I5
sS'digit3attempts'
p753
I7
sS'numCoins'
p754
I1
sS'digit4successes'
p755
I4
sS'currDigitDict'
p756
(lp757
I0
aI1
aI2
aI3
aI4
aI5
aI6
aI7
aI8
aI9
asS'digit7successes'
p758
I1
sS'digit6attempts'
p759
I7
sS'digit8successes'
p760
I3
sS'digit5attempts'
p761
I7
sS'digit8attempts'
p762
I4
sS'digit1successes'
p763
I4
sS'digit2successes'
p764
I4
sS'logins'
p765
I3
sS'digit2attempts'
p766
I7
sS'digit4attempts'
p767
I7
sS'digit9successes'
p768
I4
sS'digit0successes'
p769
I4
sS'digit3successes'
p770
I4
sS'digit7attempts'
p771
I7
sS'digit0attempts'
p772
I8
ssS'asdfasdfds'
p773
(dp774
S'logins'
p775
I1
sS'digit0attempts'
p776
I2
sS'numCoins'
p777
I1
sS'currDigitDict'
p778
(lp779
I0
aI1
aI2
asS'digit0successes'
p780
I1
ssS'mmlmkmkm'
p781
(dp782
S'digit2successes'
p783
I1
sS'logins'
p784
I1
sS'digit0successes'
p785
I1
sS'digit3successes'
p786
I1
sS'digit4attempts'
p787
I2
sS'digit0attempts'
p788
I2
sS'digit3attempts'
p789
I2
sS'digit2attempts'
p790
I2
sS'digit1attempts'
p791
I2
sS'numCoins'
p792
I9
sS'digit1successes'
p793
I1
sS'digit4successes'
p794
I1
sS'currDigitDict'
p795
(lp796
I0
aI1
aI2
aI3
aI4
aI5
assS'Connor'
p797
(dp798
S'digit6successes'
p799
I2
sS'digit1attempts'
p800
I5
sS'digit5successes'
p801
I2
sS'digit9attempts'
p802
I3
sS'digit3attempts'
p803
I4
sS'numCoins'
p804
I7
sS'digit4successes'
p805
I2
sS'currDigitDict'
p806
(lp807
I0
aI1
aI2
aI3
aI4
aI5
aI6
aI7
aI8
aI9
asS'digit7successes'
p808
I1
sS'digit6attempts'
p809
I3
sS'digit8successes'
p810
I2
sS'digit5attempts'
p811
I3
sS'digit8attempts'
p812
I3
sS'digit1successes'
p813
I3
sS'digit2successes'
p814
I3
sS'logins'
p815
I3
sS'digit2attempts'
p816
I4
sS'digit4attempts'
p817
I3
sS'digit9successes'
p818
I2
sS'digit0successes'
p819
I3
sS'digit3successes'
p820
I3
sS'digit7attempts'
p821
I3
sS'digit0attempts'
p822
I5
ssS'plzzzz'
p823
(dp824
S'digit2successes'
p825
I1
sS'logins'
p826
I1
sS'digit0successes'
p827
I1
sS'digit3successes'
p828
I1
sS'digit5successes'
p829
I1
sS'digit4successes'
p830
I1
sS'digit0attempts'
p831
I2
sS'digit3attempts'
p832
I2
sS'digit2attempts'
p833
I2
sS'digit1attempts'
p834
I2
sS'numCoins'
p835
I11
sS'digit5attempts'
p836
I2
sS'digit1successes'
p837
I1
sS'digit4attempts'
p838
I2
sS'currDigitDict'
p839
(lp840
I0
aI1
aI2
aI3
aI4
aI5
aI6
aI7
aI8
aI9
assS'joeeey'
p841
(dp842
S'logins'
p843
I1
sS'numCoins'
p844
I0
sS'currDigitDict'
p845
(lp846
I0
aI1
aI2
assS'bahooga'
p847
(dp848
S'digit2successes'
p849
I2
sS'logins'
p850
I1
sS'digit0successes'
p851
I2
sS'digit3successes'
p852
I2
sS'digit4attempts'
p853
I2
sS'digit0attempts'
p854
I3
sS'digit3attempts'
p855
I3
sS'digit2attempts'
p856
I3
sS'digit1attempts'
p857
I3
sS'numCoins'
p858
I18
sS'digit5attempts'
p859
I2
sS'digit1successes'
p860
I2
sS'digit4successes'
p861
I1
sS'currDigitDict'
p862
(lp863
I0
aI1
aI2
aI3
aI4
aI5
assS'vanessatest'
p864
(dp865
S'digit2successes'
p866
I1
sS'logins'
p867
I1
sS'digit0successes'
p868
I2
sS'digit3successes'
p869
I1
sS'digit0attempts'
p870
I3
sS'digit3attempts'
p871
I2
sS'digit2attempts'
p872
I2
sS'digit1attempts'
p873
I3
sS'numCoins'
p874
I8
sS'digit5attempts'
p875
I2
sS'digit1successes'
p876
I2
sS'digit4attempts'
p877
I2
sS'currDigitDict'
p878
(lp879
I0
aI1
aI2
aI3
aI4
aI5
assS'jack'
p880
(dp881
S'digit2successes'
p882
I2
sS'logins'
p883
I1
sS'digit0successes'
p884
I2
sS'digit3successes'
p885
I1
sS'digit0attempts'
p886
I3
sS'digit3attempts'
p887
I2
sS'digit2attempts'
p888
I3
sS'digit1attempts'
p889
I3
sS'numCoins'
p890
I1
sS'digit5attempts'
p891
I2
sS'digit1successes'
p892
I1
sS'digit4attempts'
p893
I2
sS'currDigitDict'
p894
(lp895
I0
aI1
aI2
aI3
aI4
aI5
assS'anotha1'
p896
(dp897
S'digit2successes'
p898
I2
sS'logins'
p899
I1
sS'digit0successes'
p900
I3
sS'digit3successes'
p901
I1
sS'digit0attempts'
p902
I4
sS'digit3attempts'
p903
I3
sS'digit2attempts'
p904
I3
sS'digit1attempts'
p905
I4
sS'numCoins'
p906
I2
sS'digit5attempts'
p907
I3
sS'digit1successes'
p908
I3
sS'digit4attempts'
p909
I3
sS'currDigitDict'
p910
(lp911
I0
aI1
aI2
aI3
aI4
aI5
assS'connor'
p912
(dp913
S'digit6successes'
p914
I1
sS'digit1attempts'
p915
I8
sS'digit5successes'
p916
I4
sS'digit9attempts'
p917
I2
sS'digit3attempts'
p918
I7
sS'numCoins'
p919
I23
sS'digit4successes'
p920
I4
sS'currDigitDict'
p921
(lp922
I0
aI1
aI2
aI3
aI4
aI5
aI6
aI7
aI8
aI9
asS'digit7successes'
p923
I1
sS'digit6attempts'
p924
I3
sS'digit8successes'
p925
I1
sS'digit5attempts'
p926
I5
sS'digit8attempts'
p927
I2
sS'digit1successes'
p928
I6
sS'digit2successes'
p929
I6
sS'logins'
p930
I15
sS'digit2attempts'
p931
I8
sS'digit4attempts'
p932
I6
sS'digit9successes'
p933
I1
sS'digit0successes'
p934
I5
sS'digit3successes'
p935
I5
sS'digit7attempts'
p936
I2
sS'digit0attempts'
p937
I10
ssS'ddvsv'
p938
(dp939
S'digit6successes'
p940
I1
sS'digit1attempts'
p941
I3
sS'digit5successes'
p942
I1
sS'digit9attempts'
p943
I2
sS'digit3attempts'
p944
I3
sS'numCoins'
p945
I16
sS'digit4successes'
p946
I1
sS'currDigitDict'
p947
(lp948
I0
aI1
aI2
aI3
aI4
aI5
aI6
aI7
aI8
aI9
asS'digit7successes'
p949
I1
sS'digit6attempts'
p950
I2
sS'digit8successes'
p951
I1
sS'digit5attempts'
p952
I2
sS'digit8attempts'
p953
I2
sS'digit1successes'
p954
I1
sS'digit2successes'
p955
I2
sS'logins'
p956
I1
sS'digit2attempts'
p957
I3
sS'digit4attempts'
p958
I2
sS'digit9successes'
p959
I1
sS'digit0successes'
p960
I2
sS'digit3successes'
p961
I2
sS'digit7attempts'
p962
I2
sS'digit0attempts'
p963
I3
ssS'habba!'
p964
(dp965
S'digit2successes'
p966
I1
sS'logins'
p967
I1
sS'digit0attempts'
p968
I2
sS'digit1attempts'
p969
I2
sS'digit2attempts'
p970
I2
sS'numCoins'
p971
I1
sS'currDigitDict'
p972
(lp973
I0
aI1
aI2
assS'johnnkk'
p974
(dp975
S'logins'
p976
I1
sS'currDigitDict'
p977
(lp978
I0
aI1
aI2
asS'numCoins'
p979
I0
ssS'tean the bean'
p980
(dp981
S'digit6successes'
p982
I1
sS'digit1attempts'
p983
I6
sS'digit5successes'
p984
I3
sS'digit9attempts'
p985
I4
sS'digit3attempts'
p986
I5
sS'numCoins'
p987
I4
sS'digit4successes'
p988
I4
sS'currDigitDict'
p989
(lp990
I0
aI1
aI2
aI3
aI4
aI5
aI6
aI7
aI8
aI9
asS'digit7successes'
p991
I1
sS'digit6attempts'
p992
I4
sS'digit8successes'
p993
I1
sS'digit5attempts'
p994
I4
sS'digit8attempts'
p995
I4
sS'digit1successes'
p996
I3
sS'digit2successes'
p997
I3
sS'logins'
p998
I1
sS'digit2attempts'
p999
I6
sS'digit4attempts'
p1000
I5
sS'digit9successes'
p1001
I2
sS'digit0successes'
p1002
I2
sS'digit3successes'
p1003
I4
sS'digit7attempts'
p1004
I4
sS'digit0attempts'
p1005
I6
ssS'jackkiiee'
p1006
(dp1007
S'digit2successes'
p1008
I1
sS'logins'
p1009
I1
sS'digit0successes'
p1010
I1
sS'digit0attempts'
p1011
I2
sS'digit1attempts'
p1012
I2
sS'digit2attempts'
p1013
I2
sS'numCoins'
p1014
I1
sS'currDigitDict'
p1015
(lp1016
I0
aI1
aI2
assS'bahahasjdfkld'
p1017
(dp1018
S'logins'
p1019
I1
sS'digit0attempts'
p1020
I2
sS'currDigitDict'
p1021
(lp1022
I0
aI1
aI2
asS'numCoins'
p1023
I1
sS'digit0successes'
p1024
I1
ssS'lkjlkjkl'
p1025
(dp1026
S'digit2successes'
p1027
I1
sS'logins'
p1028
I1
sS'digit0successes'
p1029
I1
sS'digit3successes'
p1030
I1
sS'digit4successes'
p1031
I1
sS'digit0attempts'
p1032
I2
sS'digit3attempts'
p1033
I2
sS'digit2attempts'
p1034
I2
sS'digit1attempts'
p1035
I2
sS'numCoins'
p1036
I9
sS'digit1successes'
p1037
I1
sS'digit4attempts'
p1038
I2
sS'currDigitDict'
p1039
(lp1040
I0
aI1
aI2
aI3
aI4
aI5
assS'gooba'
p1041
(dp1042
S'digit2successes'
p1043
I1
sS'logins'
p1044
I1
sS'digit0successes'
p1045
I1
sS'digit0attempts'
p1046
I2
sS'digit1attempts'
p1047
I2
sS'digit2attempts'
p1048
I2
sS'numCoins'
p1049
I3
sS'digit1successes'
p1050
I1
sS'currDigitDict'
p1051
(lp1052
I0
aI1
aI2
aI3
aI4
aI5
assS'asjdfjsda'
p1053
(dp1054
S'digit1attempts'
p1055
I3
sS'digit5successes'
p1056
I1
sS'digit9attempts'
p1057
I2
sS'digit3attempts'
p1058
I3
sS'numCoins'
p1059
I21
sS'digit4successes'
p1060
I2
sS'currDigitDict'
p1061
(lp1062
I0
aI1
aI2
aI3
aI4
aI5
aI6
aI7
aI8
aI9
asS'digit7successes'
p1063
I1
sS'digit6attempts'
p1064
I2
sS'digit8successes'
p1065
I1
sS'digit5attempts'
p1066
I2
sS'digit8attempts'
p1067
I2
sS'digit1successes'
p1068
I2
sS'digit2successes'
p1069
I2
sS'logins'
p1070
I1
sS'digit2attempts'
p1071
I3
sS'digit4attempts'
p1072
I3
sS'digit9successes'
p1073
I1
sS'digit0successes'
p1074
I2
sS'digit3successes'
p1075
I2
sS'digit7attempts'
p1076
I2
sS'digit0attempts'
p1077
I3
ssS'kobab'
p1078
(dp1079
S'logins'
p1080
I1
sS'numCoins'
p1081
I0
sS'currDigitDict'
p1082
(lp1083
I0
aI1
aI2
assS'Hallaw'
p1084
(dp1085
S'digit2successes'
p1086
I1
sS'logins'
p1087
I1
sS'digit0successes'
p1088
I1
sS'digit3successes'
p1089
I1
sS'digit5successes'
p1090
I1
sS'digit4attempts'
p1091
I2
sS'digit0attempts'
p1092
I2
sS'digit3attempts'
p1093
I2
sS'digit2attempts'
p1094
I2
sS'digit1attempts'
p1095
I2
sS'numCoins'
p1096
I6
sS'digit5attempts'
p1097
I2
sS'digit1successes'
p1098
I1
sS'digit4successes'
p1099
I1
sS'currDigitDict'
p1100
(lp1101
I0
aI1
aI2
aI3
aI4
aI5
aI6
aI7
aI8
aI9
assS'Another tester'
p1102
(dp1103
S'digit2successes'
p1104
I1
sS'digit0attempts'
p1105
I2
sS'logins'
p1106
I1
sS'digit0successes'
p1107
I1
sS'digit1attempts'
p1108
I2
sS'digit2attempts'
p1109
I2
sS'numCoins'
p1110
I1
sS'currDigitDict'
p1111
(lp1112
I0
aI1
aI2
assS'Isaac C'
p1113
(dp1114
S'logins'
p1115
I1
sS'numCoins'
p1116
I0
sS'currDigitDict'
p1117
(lp1118
I0
aI1
aI2
assS'klajsdflkajsdlfk'
p1119
(dp1120
S'logins'
p1121
I1
sS'digit0successes'
p1122
I1
sS'digit0attempts'
p1123
I2
sS'digit1attempts'
p1124
I2
sS'digit2attempts'
p1125
I2
sS'numCoins'
p1126
I1
sS'digit1successes'
p1127
I1
sS'currDigitDict'
p1128
(lp1129
I0
aI1
aI2
assS'fsdfdsbs'
p1130
(dp1131
S'digit2successes'
p1132
I2
sS'logins'
p1133
I1
sS'digit0successes'
p1134
I3
sS'digit3successes'
p1135
I2
sS'digit0attempts'
p1136
I4
sS'digit3attempts'
p1137
I3
sS'digit2attempts'
p1138
I3
sS'digit1attempts'
p1139
I3
sS'numCoins'
p1140
I6
sS'digit5attempts'
p1141
I3
sS'digit1successes'
p1142
I2
sS'digit4attempts'
p1143
I3
sS'currDigitDict'
p1144
(lp1145
I0
aI1
aI2
aI3
aI4
aI5
assS'plzwork2394324'
p1146
(dp1147
S'digit0attempts'
p1148
I5
sS'logins'
p1149
I1
sS'digit0successes'
p1150
I4
sS'digit1attempts'
p1151
I5
sS'digit2attempts'
p1152
I4
sS'numCoins'
p1153
I7
sS'digit1successes'
p1154
I4
sS'currDigitDict'
p1155
(lp1156
I0
aI1
aI2
assS'sdlfsdjkfjsdkljf'
p1157
(dp1158
S'logins'
p1159
I1
sS'digit0attempts'
p1160
I2
sS'numCoins'
p1161
I0
sS'currDigitDict'
p1162
(lp1163
I0
aI1
aI2
assS'klklkl'
p1164
(dp1165
S'digit2successes'
p1166
I1
sS'logins'
p1167
I1
sS'digit0successes'
p1168
I1
sS'digit3successes'
p1169
I1
sS'digit4successes'
p1170
I1
sS'digit0attempts'
p1171
I2
sS'digit3attempts'
p1172
I2
sS'digit2attempts'
p1173
I2
sS'digit1attempts'
p1174
I2
sS'numCoins'
p1175
I9
sS'digit1successes'
p1176
I1
sS'digit4attempts'
p1177
I2
sS'currDigitDict'
p1178
(lp1179
I0
aI1
aI2
aI3
aI4
aI5
assS'sldkfjsdlkfs'
p1180
(dp1181
S'digit0attempts'
p1182
I2
sS'logins'
p1183
I1
sS'digit0successes'
p1184
I1
sS'digit1attempts'
p1185
I2
sS'digit2attempts'
p1186
I2
sS'numCoins'
p1187
I1
sS'digit1successes'
p1188
I1
sS'currDigitDict'
p1189
(lp1190
I0
aI1
aI2
assS'vanessatesstplz'
p1191
(dp1192
S'digit2successes'
p1193
I1
sS'digit0attempts'
p1194
I2
sS'logins'
p1195
I1
sS'digit0successes'
p1196
I1
sS'digit1attempts'
p1197
I2
sS'digit2attempts'
p1198
I2
sS'numCoins'
p1199
I3
sS'digit1successes'
p1200
I1
sS'currDigitDict'
p1201
(lp1202
I0
aI1
aI2
aI3
aI4
aI5
ass.