(dp0
S'oijoijoi'
p1
(dp2
S'logins'
p3
I1
sS'digit0successes'
p4
I3
sS'digit0attempts'
p5
I6
sS'digit1attempts'
p6
I6
sS'digit2attempts'
p7
I5
sS'digit1successes'
p8
I4
sS'currDigitDict'
p9
(lp10
I0
aI1
aI2
assS'testre man'
p11
(dp12
S'digit0attempts'
p13
I9
sS'logins'
p14
I1
sS'digit0successes'
p15
I4
sS'digit1attempts'
p16
I8
sS'digit2attempts'
p17
I6
sS'digit1successes'
p18
I4
sS'currDigitDict'
p19
(lp20
I0
aI1
aI2
assS'muhama'
p21
(dp22
S'digit9successes'
p23
I1
sS'digit2successes'
p24
I2
sS'digit6successes'
p25
I1
sS'digit1attempts'
p26
I9
sS'digit0successes'
p27
I5
sS'digit4successes'
p28
I2
sS'digit3successes'
p29
I2
sS'digit5successes'
p30
I1
sS'digit6attempts'
p31
I2
sS'digit9attempts'
p32
I2
sS'digit8successes'
p33
I1
sS'digit3attempts'
p34
I3
sS'digit2attempts'
p35
I9
sS'digit5attempts'
p36
I2
sS'digit7attempts'
p37
I2
sS'digit0attempts'
p38
I9
sS'digit8attempts'
p39
I2
sS'digit1successes'
p40
I5
sS'logins'
p41
I1
sS'digit4attempts'
p42
I3
sS'currDigitDict'
p43
(lp44
I0
aI1
aI2
aI3
aI4
aI5
aI6
aI7
aI8
aI9
assS'connnnaaaawww'
p45
(dp46
S'digit2successes'
p47
I1
sS'logins'
p48
I1
sS'digit0successes'
p49
I2
sS'digit0attempts'
p50
I3
sS'digit1attempts'
p51
I3
sS'digit2attempts'
p52
I3
sS'digit1successes'
p53
I2
sS'currDigitDict'
p54
(lp55
I0
aI1
aI2
aI3
aI4
aI5
assS'connor'
p56
(dp57
S'digit0attempts'
p58
I5
sS'logins'
p59
I1
sS'digit0successes'
p60
I4
sS'digit1attempts'
p61
I5
sS'digit2attempts'
p62
I4
sS'digit1successes'
p63
I3
sS'currDigitDict'
p64
(lp65
I0
aI1
aI2
assS'muavaaka'
p66
(dp67
S'digit0attempts'
p68
I2
sS'logins'
p69
I1
sS'digit0successes'
p70
I1
sS'digit1attempts'
p71
I2
sS'digit2attempts'
p72
I2
sS'digit1successes'
p73
I1
sS'currDigitDict'
p74
(lp75
I0
aI1
aI2
assS'cama'
p76
(dp77
S'digit2successes'
p78
I1
sS'digit0attempts'
p79
I7
sS'logins'
p80
I1
sS'digit0successes'
p81
I5
sS'digit1attempts'
p82
I7
sS'digit3attempts'
p83
I4
sS'digit2attempts'
p84
I7
sS'digit5attempts'
p85
I3
sS'digit1successes'
p86
I4
sS'digit4attempts'
p87
I3
sS'currDigitDict'
p88
(lp89
I0
aI1
aI2
aI3
aI4
aI5
assS'alsdfjalsdfj'
p90
(dp91
S'digit2successes'
p92
I2
sS'logins'
p93
I1
sS'digit0successes'
p94
I3
sS'digit3attempts'
p95
I3
sS'digit0attempts'
p96
I6
sS'digit1attempts'
p97
I6
sS'digit2attempts'
p98
I6
sS'digit5attempts'
p99
I2
sS'digit1successes'
p100
I3
sS'digit4attempts'
p101
I2
sS'currDigitDict'
p102
(lp103
I0
aI1
aI2
aI3
aI4
aI5
ass.