(dp0
S'muhama'
p1
(dp2
S'digit9successes'
p3
I1
sS'digit2successes'
p4
I2
sS'digit8successes'
p5
I1
sS'digit6successes'
p6
I1
sS'logins'
p7
I1
sS'digit0successes'
p8
I5
sS'digit3successes'
p9
I2
sS'digit3attempts'
p10
I3
sS'digit5successes'
p11
I1
sS'digit4successes'
p12
I2
sS'digit9attempts'
p13
I2
sS'digit0attempts'
p14
I9
sS'digit1attempts'
p15
I9
sS'digit2attempts'
p16
I9
sS'digit5attempts'
p17
I2
sS'digit7attempts'
p18
I2
sS'digit8attempts'
p19
I2
sS'digit1successes'
p20
I5
sS'digit6attempts'
p21
I2
sS'digit4attempts'
p22
I3
sS'currDigitDict'
p23
(lp24
I0
aI1
aI2
aI3
aI4
aI5
aI6
aI7
aI8
aI9
assS'connor'
p25
(dp26
S'digit0attempts'
p27
I5
sS'logins'
p28
I1
sS'digit0successes'
p29
I4
sS'digit1attempts'
p30
I5
sS'digit2attempts'
p31
I4
sS'digit1successes'
p32
I3
sS'currDigitDict'
p33
(lp34
I0
aI1
aI2
ass.