(dp0
S'Turkey'
p1
(dp2
S'logins'
p3
I1
sS'digit0attempts'
p4
I2
sS'digit1attempts'
p5
I2
sS'digit2attempts'
p6
I2
sS'numCoins'
p7
I0
sS'currDigitDict'
p8
(lp9
I0
aI1
aI2
assS''
p10
(dp11
S'logins'
p12
I1
sS'currDigitDict'
p13
(lp14
I0
aI1
aI2
asS'numCoins'
p15
I0
ssS'Jackson'
p16
(dp17
S'digit2successes'
p18
I1
sS'logins'
p19
I1
sS'digit0successes'
p20
I1
sS'digit3successes'
p21
I1
sS'digit0attempts'
p22
I2
sS'digit3attempts'
p23
I2
sS'digit2attempts'
p24
I2
sS'digit1attempts'
p25
I2
sS'numCoins'
p26
I4
sS'digit1successes'
p27
I1
sS'currDigitDict'
p28
(lp29
I0
aI1
aI2
aI3
aI4
aI5
assS'Testuser'
p30
(dp31
S'logins'
p32
I1
sS'digit0successes'
p33
I1
sS'digit0attempts'
p34
I2
sS'digit1attempts'
p35
I2
sS'numCoins'
p36
I2
sS'digit1successes'
p37
I1
sS'currDigitDict'
p38
(lp39
I0
aI1
aI2
assS'oohh'
p40
(dp41
S'digit6successes'
p42
I1
sS'digit1attempts'
p43
I3
sS'digit5successes'
p44
I1
sS'digit9attempts'
p45
I2
sS'digit3attempts'
p46
I3
sS'numCoins'
p47
I14
sS'digit4successes'
p48
I1
sS'currDigitDict'
p49
(lp50
I0
aI1
aI2
aI3
aI4
aI5
aI6
aI7
aI8
aI9
asS'digit7successes'
p51
I1
sS'digit6attempts'
p52
I2
sS'digit8successes'
p53
I1
sS'digit5attempts'
p54
I2
sS'digit8attempts'
p55
I2
sS'digit1successes'
p56
I2
sS'digit2successes'
p57
I2
sS'logins'
p58
I1
sS'digit2attempts'
p59
I3
sS'digit4attempts'
p60
I2
sS'digit9successes'
p61
I1
sS'digit0successes'
p62
I2
sS'digit3successes'
p63
I2
sS'digit7attempts'
p64
I2
sS'digit0attempts'
p65
I3
ssS'testman'
p66
(dp67
S'digit2successes'
p68
I1
sS'logins'
p69
I1
sS'digit0successes'
p70
I1
sS'digit3successes'
p71
I1
sS'digit0attempts'
p72
I3
sS'digit3attempts'
p73
I2
sS'digit2attempts'
p74
I3
sS'digit1attempts'
p75
I3
sS'numCoins'
p76
I4
sS'digit1successes'
p77
I1
sS'currDigitDict'
p78
(lp79
I0
aI1
aI2
aI3
aI4
aI5
assS'lovable'
p80
(dp81
S'digit2successes'
p82
I1
sS'digit6successes'
p83
I1
sS'digit1attempts'
p84
I3
sS'digit0successes'
p85
I2
sS'digit3successes'
p86
I1
sS'digit5successes'
p87
I1
sS'digit6attempts'
p88
I2
sS'digit9attempts'
p89
I2
sS'logins'
p90
I1
sS'digit3attempts'
p91
I2
sS'digit2attempts'
p92
I3
sS'digit5attempts'
p93
I2
sS'digit7attempts'
p94
I2
sS'numCoins'
p95
I0
sS'digit0attempts'
p96
I3
sS'digit8attempts'
p97
I2
sS'digit1successes'
p98
I2
sS'digit4successes'
p99
I1
sS'digit4attempts'
p100
I2
sS'currDigitDict'
p101
(lp102
I0
aI1
aI2
aI3
aI4
aI5
aI6
aI7
aI8
aI9
assS'connor '
p103
(dp104
S'digit2successes'
p105
I1
sS'digit0attempts'
p106
I2
sS'logins'
p107
I1
sS'digit0successes'
p108
I1
sS'digit1attempts'
p109
I2
sS'digit2attempts'
p110
I3
sS'numCoins'
p111
I2
sS'digit1successes'
p112
I1
sS'currDigitDict'
p113
(lp114
I0
aI1
aI2
aI3
aI4
aI5
assS'Tina'
p115
(dp116
S'digit2successes'
p117
I1
sS'logins'
p118
I1
sS'digit0successes'
p119
I2
sS'digit3successes'
p120
I1
sS'digit5successes'
p121
I1
sS'digit0attempts'
p122
I3
sS'digit3attempts'
p123
I3
sS'digit2attempts'
p124
I2
sS'digit1attempts'
p125
I2
sS'numCoins'
p126
I5
sS'digit5attempts'
p127
I2
sS'digit1successes'
p128
I1
sS'currDigitDict'
p129
(lp130
I0
aI1
aI2
aI3
aI4
aI5
assS'hallaaaaa'
p131
(dp132
S'digit2successes'
p133
I2
sS'logins'
p134
I1
sS'digit0successes'
p135
I3
sS'digit3successes'
p136
I1
sS'digit4successes'
p137
I2
sS'digit0attempts'
p138
I6
sS'digit3attempts'
p139
I3
sS'digit2attempts'
p140
I5
sS'digit1attempts'
p141
I5
sS'numCoins'
p142
I3
sS'digit5attempts'
p143
I3
sS'digit1successes'
p144
I3
sS'digit4attempts'
p145
I3
sS'currDigitDict'
p146
(lp147
I0
aI1
aI2
aI3
aI4
aI5
assS'kevin'
p148
(dp149
S'logins'
p150
I1
sS'currDigitDict'
p151
(lp152
I0
aI1
aI2
asS'numCoins'
p153
I0
ssS'Henlo'
p154
(dp155
S'digit2successes'
p156
I1
sS'logins'
p157
I1
sS'digit0successes'
p158
I1
sS'digit0attempts'
p159
I2
sS'digit1attempts'
p160
I2
sS'digit2attempts'
p161
I2
sS'numCoins'
p162
I3
sS'digit1successes'
p163
I1
sS'currDigitDict'
p164
(lp165
I0
aI1
aI2
aI3
aI4
aI5
assS'jose'
p166
(dp167
S'digit6successes'
p168
I2
sS'digit1attempts'
p169
I5
sS'digit5successes'
p170
I3
sS'digit9attempts'
p171
I4
sS'digit3attempts'
p172
I4
sS'numCoins'
p173
I0
sS'digit4successes'
p174
I3
sS'currDigitDict'
p175
(lp176
I0
aI1
aI2
aI3
aI4
aI5
aI6
aI7
aI8
aI9
asS'digit7successes'
p177
I1
sS'digit6attempts'
p178
I4
sS'digit8successes'
p179
I1
sS'digit5attempts'
p180
I4
sS'digit8attempts'
p181
I4
sS'digit1successes'
p182
I3
sS'digit2successes'
p183
I3
sS'logins'
p184
I1
sS'digit2attempts'
p185
I4
sS'digit4attempts'
p186
I4
sS'digit0successes'
p187
I3
sS'digit3successes'
p188
I3
sS'digit7attempts'
p189
I4
sS'digit0attempts'
p190
I5
ssS'Mike'
p191
(dp192
S'digit0attempts'
p193
I2
sS'logins'
p194
I1
sS'digit0successes'
p195
I1
sS'digit1attempts'
p196
I2
sS'numCoins'
p197
I2
sS'digit1successes'
p198
I1
sS'currDigitDict'
p199
(lp200
I0
aI1
aI2
assS'whatup'
p201
(dp202
S'digit6successes'
p203
I1
sS'digit1attempts'
p204
I6
sS'digit5successes'
p205
I2
sS'digit9attempts'
p206
I4
sS'digit3attempts'
p207
I4
sS'numCoins'
p208
I3
sS'digit4successes'
p209
I1
sS'currDigitDict'
p210
(lp211
I0
aI1
aI2
aI3
aI4
aI5
aI6
aI7
aI8
aI9
asS'digit7successes'
p212
I3
sS'digit6attempts'
p213
I4
sS'digit8successes'
p214
I2
sS'digit5attempts'
p215
I4
sS'digit8attempts'
p216
I4
sS'digit1successes'
p217
I4
sS'digit2successes'
p218
I1
sS'logins'
p219
I1
sS'digit2attempts'
p220
I6
sS'digit4attempts'
p221
I4
sS'digit9successes'
p222
I3
sS'digit0successes'
p223
I3
sS'digit3successes'
p224
I2
sS'digit7attempts'
p225
I4
sS'digit0attempts'
p226
I6
ssS'Tester'
p227
(dp228
S'logins'
p229
I1
sS'digit0attempts'
p230
I2
sS'numCoins'
p231
I0
sS'currDigitDict'
p232
(lp233
I0
aI1
aI2
assS'Vanessa'
p234
(dp235
S'digit6successes'
p236
I1
sS'digit1attempts'
p237
I3
sS'digit5successes'
p238
I1
sS'digit9attempts'
p239
I2
sS'digit3attempts'
p240
I3
sS'numCoins'
p241
I4
sS'digit4successes'
p242
I1
sS'currDigitDict'
p243
(lp244
I0
aI1
aI2
aI3
aI4
aI5
aI6
aI7
aI8
aI9
asS'digit7successes'
p245
I1
sS'digit6attempts'
p246
I2
sS'digit8successes'
p247
I1
sS'digit5attempts'
p248
I2
sS'digit8attempts'
p249
I2
sS'digit1successes'
p250
I2
sS'digit2successes'
p251
I2
sS'logins'
p252
I2
sS'digit2attempts'
p253
I3
sS'digit4attempts'
p254
I2
sS'digit9successes'
p255
I1
sS'digit0successes'
p256
I2
sS'digit3successes'
p257
I2
sS'digit7attempts'
p258
I2
sS'digit0attempts'
p259
I3
ssS'javathehut'
p260
(dp261
S'digit7successes'
p262
I1
sS'digit2successes'
p263
I2
sS'digit4attempts'
p264
I3
sS'digit6successes'
p265
I2
sS'digit1attempts'
p266
I4
sS'digit0successes'
p267
I1
sS'digit3successes'
p268
I2
sS'digit5successes'
p269
I2
sS'digit6attempts'
p270
I3
sS'digit9attempts'
p271
I3
sS'logins'
p272
I1
sS'digit3attempts'
p273
I3
sS'digit2attempts'
p274
I3
sS'digit5attempts'
p275
I3
sS'digit7attempts'
p276
I3
sS'numCoins'
p277
I0
sS'digit0attempts'
p278
I4
sS'digit8attempts'
p279
I3
sS'digit1successes'
p280
I2
sS'digit4successes'
p281
I2
sS'currDigitDict'
p282
(lp283
I0
aI1
aI2
aI3
aI4
aI5
aI6
aI7
aI8
aI9
assS'Andrew'
p284
(dp285
S'logins'
p286
I1
sS'digit0attempts'
p287
I2
sS'currDigitDict'
p288
(lp289
I0
aI1
aI2
asS'numCoins'
p290
I1
sS'digit0successes'
p291
I1
ssS'brandon'
p292
(dp293
S'digit0attempts'
p294
I2
sS'logins'
p295
I1
sS'digit0successes'
p296
I1
sS'digit1attempts'
p297
I2
sS'digit2attempts'
p298
I2
sS'numCoins'
p299
I1
sS'digit1successes'
p300
I1
sS'currDigitDict'
p301
(lp302
I0
aI1
aI2
assS'Joe'
p303
(dp304
S'digit1attempts'
p305
I2
sS'digit5successes'
p306
I1
sS'digit9attempts'
p307
I2
sS'digit3attempts'
p308
I2
sS'numCoins'
p309
I7
sS'digit4successes'
p310
I1
sS'currDigitDict'
p311
(lp312
I0
aI1
aI2
aI3
aI4
aI5
aI6
aI7
aI8
aI9
asS'digit7successes'
p313
I1
sS'digit6attempts'
p314
I2
sS'digit8successes'
p315
I1
sS'digit5attempts'
p316
I2
sS'digit8attempts'
p317
I2
sS'digit1successes'
p318
I1
sS'digit2successes'
p319
I1
sS'logins'
p320
I1
sS'digit2attempts'
p321
I2
sS'digit4attempts'
p322
I2
sS'digit9successes'
p323
I1
sS'digit0successes'
p324
I1
sS'digit3successes'
p325
I1
sS'digit7attempts'
p326
I2
sS'digit0attempts'
p327
I3
ssS'tina'
p328
(dp329
S'logins'
p330
I1
sS'currDigitDict'
p331
(lp332
I0
aI1
aI2
asS'numCoins'
p333
I0
ssS'Connor'
p334
(dp335
S'digit6successes'
p336
I2
sS'digit1attempts'
p337
I5
sS'digit5successes'
p338
I2
sS'digit9attempts'
p339
I3
sS'digit3attempts'
p340
I4
sS'numCoins'
p341
I7
sS'digit4successes'
p342
I2
sS'currDigitDict'
p343
(lp344
I0
aI1
aI2
aI3
aI4
aI5
aI6
aI7
aI8
aI9
asS'digit7successes'
p345
I1
sS'digit6attempts'
p346
I3
sS'digit8successes'
p347
I2
sS'digit5attempts'
p348
I3
sS'digit8attempts'
p349
I3
sS'digit1successes'
p350
I3
sS'digit2successes'
p351
I3
sS'logins'
p352
I3
sS'digit2attempts'
p353
I4
sS'digit4attempts'
p354
I3
sS'digit9successes'
p355
I2
sS'digit0successes'
p356
I3
sS'digit3successes'
p357
I3
sS'digit7attempts'
p358
I3
sS'digit0attempts'
p359
I5
ssS'okokok'
p360
(dp361
S'digit2successes'
p362
I1
sS'logins'
p363
I1
sS'digit0successes'
p364
I1
sS'digit0attempts'
p365
I2
sS'digit1attempts'
p366
I2
sS'digit2attempts'
p367
I2
sS'numCoins'
p368
I3
sS'digit1successes'
p369
I1
sS'currDigitDict'
p370
(lp371
I0
aI1
aI2
aI3
aI4
aI5
assS'kevinyang'
p372
(dp373
S'digit0attempts'
p374
I3
sS'logins'
p375
I1
sS'digit0successes'
p376
I1
sS'digit1attempts'
p377
I2
sS'digit2attempts'
p378
I2
sS'numCoins'
p379
I1
sS'digit1successes'
p380
I1
sS'currDigitDict'
p381
(lp382
I0
aI1
aI2
assS'norman'
p383
(dp384
S'digit2successes'
p385
I1
sS'logins'
p386
I1
sS'digit0successes'
p387
I1
sS'digit3successes'
p388
I1
sS'digit0attempts'
p389
I2
sS'digit3attempts'
p390
I2
sS'digit2attempts'
p391
I2
sS'digit1attempts'
p392
I2
sS'numCoins'
p393
I4
sS'digit1successes'
p394
I1
sS'currDigitDict'
p395
(lp396
I0
aI1
aI2
aI3
aI4
aI5
assS'yaha'
p397
(dp398
S'logins'
p399
I1
sS'currDigitDict'
p400
(lp401
I0
aI1
aI2
asS'numCoins'
p402
I0
ssS'newUserBaddd'
p403
(dp404
S'digit6successes'
p405
I3
sS'digit1attempts'
p406
I7
sS'digit5successes'
p407
I5
sS'digit9attempts'
p408
I5
sS'digit3attempts'
p409
I7
sS'numCoins'
p410
I1
sS'digit4successes'
p411
I4
sS'currDigitDict'
p412
(lp413
I0
aI1
aI2
aI3
aI4
aI5
aI6
aI7
aI8
aI9
asS'digit7successes'
p414
I1
sS'digit6attempts'
p415
I7
sS'digit8successes'
p416
I3
sS'digit5attempts'
p417
I7
sS'digit8attempts'
p418
I4
sS'digit1successes'
p419
I4
sS'digit2successes'
p420
I4
sS'logins'
p421
I3
sS'digit2attempts'
p422
I7
sS'digit4attempts'
p423
I7
sS'digit9successes'
p424
I4
sS'digit0successes'
p425
I4
sS'digit3successes'
p426
I4
sS'digit7attempts'
p427
I7
sS'digit0attempts'
p428
I8
ssS'joeeey'
p429
(dp430
S'logins'
p431
I1
sS'numCoins'
p432
I0
sS'currDigitDict'
p433
(lp434
I0
aI1
aI2
assS'jack'
p435
(dp436
S'digit2successes'
p437
I2
sS'logins'
p438
I1
sS'digit0successes'
p439
I2
sS'digit3successes'
p440
I1
sS'digit0attempts'
p441
I3
sS'digit3attempts'
p442
I2
sS'digit2attempts'
p443
I3
sS'digit1attempts'
p444
I3
sS'numCoins'
p445
I1
sS'digit5attempts'
p446
I2
sS'digit1successes'
p447
I1
sS'digit4attempts'
p448
I2
sS'currDigitDict'
p449
(lp450
I0
aI1
aI2
aI3
aI4
aI5
assS'connor'
p451
(dp452
S'digit2successes'
p453
I4
sS'logins'
p454
I11
sS'digit0successes'
p455
I3
sS'digit3successes'
p456
I3
sS'digit5successes'
p457
I2
sS'digit4successes'
p458
I2
sS'digit0attempts'
p459
I7
sS'digit3attempts'
p460
I5
sS'digit2attempts'
p461
I6
sS'digit1attempts'
p462
I6
sS'numCoins'
p463
I0
sS'digit5attempts'
p464
I3
sS'digit1successes'
p465
I4
sS'digit4attempts'
p466
I4
sS'currDigitDict'
p467
(lp468
I0
aI1
aI2
aI3
aI4
aI5
aI6
aI7
aI8
aI9
assS'habba!'
p469
(dp470
S'digit2successes'
p471
I1
sS'logins'
p472
I1
sS'digit0attempts'
p473
I2
sS'digit1attempts'
p474
I2
sS'digit2attempts'
p475
I2
sS'numCoins'
p476
I1
sS'currDigitDict'
p477
(lp478
I0
aI1
aI2
assS'tean the bean'
p479
(dp480
S'digit6successes'
p481
I1
sS'digit1attempts'
p482
I6
sS'digit5successes'
p483
I3
sS'digit9attempts'
p484
I4
sS'digit3attempts'
p485
I5
sS'numCoins'
p486
I4
sS'digit4successes'
p487
I4
sS'currDigitDict'
p488
(lp489
I0
aI1
aI2
aI3
aI4
aI5
aI6
aI7
aI8
aI9
asS'digit7successes'
p490
I1
sS'digit6attempts'
p491
I4
sS'digit8successes'
p492
I1
sS'digit5attempts'
p493
I4
sS'digit8attempts'
p494
I4
sS'digit1successes'
p495
I3
sS'digit2successes'
p496
I3
sS'logins'
p497
I1
sS'digit2attempts'
p498
I6
sS'digit4attempts'
p499
I5
sS'digit9successes'
p500
I2
sS'digit0successes'
p501
I2
sS'digit3successes'
p502
I4
sS'digit7attempts'
p503
I4
sS'digit0attempts'
p504
I6
ssS'jackkiiee'
p505
(dp506
S'digit2successes'
p507
I1
sS'logins'
p508
I1
sS'digit0successes'
p509
I1
sS'digit0attempts'
p510
I2
sS'digit1attempts'
p511
I2
sS'digit2attempts'
p512
I2
sS'numCoins'
p513
I1
sS'currDigitDict'
p514
(lp515
I0
aI1
aI2
assS'kobab'
p516
(dp517
S'logins'
p518
I1
sS'numCoins'
p519
I0
sS'currDigitDict'
p520
(lp521
I0
aI1
aI2
assS'Hallaw'
p522
(dp523
S'digit2successes'
p524
I1
sS'logins'
p525
I1
sS'digit0successes'
p526
I1
sS'digit3successes'
p527
I1
sS'digit5successes'
p528
I1
sS'digit4attempts'
p529
I2
sS'digit0attempts'
p530
I2
sS'digit3attempts'
p531
I2
sS'digit2attempts'
p532
I2
sS'digit1attempts'
p533
I2
sS'numCoins'
p534
I6
sS'digit5attempts'
p535
I2
sS'digit1successes'
p536
I1
sS'digit4successes'
p537
I1
sS'currDigitDict'
p538
(lp539
I0
aI1
aI2
aI3
aI4
aI5
aI6
aI7
aI8
aI9
assS'Another tester'
p540
(dp541
S'digit2successes'
p542
I1
sS'digit0attempts'
p543
I2
sS'logins'
p544
I1
sS'digit0successes'
p545
I1
sS'digit1attempts'
p546
I2
sS'digit2attempts'
p547
I2
sS'numCoins'
p548
I1
sS'currDigitDict'
p549
(lp550
I0
aI1
aI2
ass.