(dp0
S'vanessa'
p1
(dp2
S'logins'
p3
I2
sS'digit1attempts'
p4
I3
sS'digit7attempts'
p5
I4
sS'digit6attempts'
p6
I4
sS'digit0attempts'
p7
I3
sS'digit3attempts'
p8
I3
sS'digit2attempts'
p9
I2
sS'digit5attempts'
p10
I3
ss.