(dp0
S''
p1
(dp2
S'logins'
p3
I2
sS'numCoins'
p4
I0
sS'currDigitDict'
p5
(lp6
I0
aI1
aI2
assS'dssdvds'
p7
(dp8
S'logins'
p9
I1
sS'digit0attempts'
p10
I2
sS'currDigitDict'
p11
(lp12
I0
aI1
aI2
asS'numCoins'
p13
I1
sS'digit0successes'
p14
I1
ssS'Testuser'
p15
(dp16
S'digit0attempts'
p17
I2
sS'logins'
p18
I1
sS'digit0successes'
p19
I1
sS'digit1attempts'
p20
I2
sS'numCoins'
p21
I2
sS'digit1successes'
p22
I1
sS'currDigitDict'
p23
(lp24
I0
aI1
aI2
assS'ijcioffi'
p25
(dp26
S'digit0attempts'
p27
I3
sS'logins'
p28
I1
sS'digit0successes'
p29
I2
sS'digit1attempts'
p30
I2
sS'digit2attempts'
p31
I2
sS'numCoins'
p32
I1
sS'currDigitDict'
p33
(lp34
I0
aI1
aI2
assS'habbas'
p35
(dp36
S'digit2successes'
p37
I1
sS'logins'
p38
I1
sS'digit0successes'
p39
I1
sS'digit3successes'
p40
I1
sS'digit0attempts'
p41
I2
sS'digit3attempts'
p42
I2
sS'digit2attempts'
p43
I2
sS'digit1attempts'
p44
I2
sS'numCoins'
p45
I4
sS'digit1successes'
p46
I1
sS'currDigitDict'
p47
(lp48
I0
aI1
aI2
aI3
aI4
aI5
assS'sdfdsfsd'
p49
(dp50
S'digit6successes'
p51
I2
sS'digit1attempts'
p52
I4
sS'digit5successes'
p53
I2
sS'digit9attempts'
p54
I3
sS'digit3attempts'
p55
I3
sS'numCoins'
p56
I36
sS'digit4successes'
p57
I2
sS'currDigitDict'
p58
(lp59
I0
aI1
aI2
aI3
aI4
aI5
aI6
aI7
aI8
aI9
asS'digit7successes'
p60
I1
sS'digit6attempts'
p61
I3
sS'digit8successes'
p62
I2
sS'digit5attempts'
p63
I3
sS'digit8attempts'
p64
I3
sS'digit1successes'
p65
I3
sS'digit2successes'
p66
I3
sS'logins'
p67
I1
sS'digit2attempts'
p68
I4
sS'digit4attempts'
p69
I3
sS'digit9successes'
p70
I2
sS'digit0successes'
p71
I3
sS'digit3successes'
p72
I1
sS'digit7attempts'
p73
I3
sS'digit0attempts'
p74
I4
ssS'mmlmkmkm'
p75
(dp76
S'digit2successes'
p77
I1
sS'logins'
p78
I1
sS'digit0successes'
p79
I1
sS'digit3successes'
p80
I1
sS'digit4successes'
p81
I1
sS'digit0attempts'
p82
I2
sS'digit3attempts'
p83
I2
sS'digit2attempts'
p84
I2
sS'digit1attempts'
p85
I2
sS'numCoins'
p86
I9
sS'digit1successes'
p87
I1
sS'digit4attempts'
p88
I2
sS'currDigitDict'
p89
(lp90
I0
aI1
aI2
aI3
aI4
aI5
assS'plseasework'
p91
(dp92
S'logins'
p93
I1
sS'digit0successes'
p94
I1
sS'digit0attempts'
p95
I2
sS'digit1attempts'
p96
I2
sS'digit2attempts'
p97
I2
sS'numCoins'
p98
I1
sS'digit1successes'
p99
I1
sS'currDigitDict'
p100
(lp101
I0
aI1
aI2
assS'anotha1'
p102
(dp103
S'digit2successes'
p104
I2
sS'logins'
p105
I1
sS'digit0successes'
p106
I3
sS'digit3successes'
p107
I1
sS'digit0attempts'
p108
I4
sS'digit3attempts'
p109
I3
sS'digit2attempts'
p110
I3
sS'digit1attempts'
p111
I4
sS'numCoins'
p112
I2
sS'digit5attempts'
p113
I3
sS'digit1successes'
p114
I3
sS'digit4attempts'
p115
I3
sS'currDigitDict'
p116
(lp117
I0
aI1
aI2
aI3
aI4
aI5
assS'jose'
p118
(dp119
S'digit6successes'
p120
I2
sS'digit1attempts'
p121
I5
sS'digit5successes'
p122
I3
sS'digit9attempts'
p123
I4
sS'digit3attempts'
p124
I4
sS'numCoins'
p125
I0
sS'digit4successes'
p126
I3
sS'currDigitDict'
p127
(lp128
I0
aI1
aI2
aI3
aI4
aI5
aI6
aI7
aI8
aI9
asS'digit7successes'
p129
I1
sS'digit6attempts'
p130
I4
sS'digit8successes'
p131
I1
sS'digit5attempts'
p132
I4
sS'digit8attempts'
p133
I4
sS'digit1successes'
p134
I3
sS'digit2successes'
p135
I3
sS'logins'
p136
I1
sS'digit2attempts'
p137
I4
sS'digit4attempts'
p138
I4
sS'digit0successes'
p139
I3
sS'digit3successes'
p140
I3
sS'digit7attempts'
p141
I4
sS'digit0attempts'
p142
I5
ssS'Vanessa'
p143
(dp144
S'digit6successes'
p145
I1
sS'digit1attempts'
p146
I3
sS'digit5successes'
p147
I1
sS'digit9attempts'
p148
I2
sS'digit3attempts'
p149
I3
sS'numCoins'
p150
I4
sS'digit4successes'
p151
I1
sS'currDigitDict'
p152
(lp153
I0
aI1
aI2
aI3
aI4
aI5
aI6
aI7
aI8
aI9
asS'digit7successes'
p154
I1
sS'digit6attempts'
p155
I2
sS'digit8successes'
p156
I1
sS'digit5attempts'
p157
I2
sS'digit8attempts'
p158
I2
sS'digit1successes'
p159
I2
sS'digit2successes'
p160
I2
sS'logins'
p161
I2
sS'digit2attempts'
p162
I3
sS'digit4attempts'
p163
I2
sS'digit9successes'
p164
I1
sS'digit0successes'
p165
I2
sS'digit3successes'
p166
I2
sS'digit7attempts'
p167
I2
sS'digit0attempts'
p168
I3
ssS'cdscsdc'
p169
(dp170
S'digit2successes'
p171
I2
sS'logins'
p172
I1
sS'digit0successes'
p173
I2
sS'digit3successes'
p174
I1
sS'digit0attempts'
p175
I3
sS'digit3attempts'
p176
I2
sS'digit2attempts'
p177
I3
sS'digit1attempts'
p178
I3
sS'numCoins'
p179
I9
sS'digit1successes'
p180
I1
sS'currDigitDict'
p181
(lp182
I0
aI1
aI2
aI3
aI4
aI5
assS'kaboobap'
p183
(dp184
S'digit2successes'
p185
I2
sS'digit4attempts'
p186
I2
sS'digit6successes'
p187
I1
sS'logins'
p188
I1
sS'digit0successes'
p189
I2
sS'digit3successes'
p190
I1
sS'digit5successes'
p191
I1
sS'digit6attempts'
p192
I2
sS'digit0attempts'
p193
I4
sS'digit3attempts'
p194
I2
sS'digit2attempts'
p195
I3
sS'digit1attempts'
p196
I2
sS'numCoins'
p197
I9
sS'digit5attempts'
p198
I2
sS'digit1successes'
p199
I1
sS'digit4successes'
p200
I1
sS'currDigitDict'
p201
(lp202
I0
aI1
aI2
aI3
aI4
aI5
aI6
aI7
aI8
aI9
assS'okokok'
p203
(dp204
S'digit2successes'
p205
I1
sS'digit0attempts'
p206
I2
sS'logins'
p207
I1
sS'digit0successes'
p208
I1
sS'digit1attempts'
p209
I2
sS'digit2attempts'
p210
I2
sS'numCoins'
p211
I3
sS'digit1successes'
p212
I1
sS'currDigitDict'
p213
(lp214
I0
aI1
aI2
aI3
aI4
aI5
assS'jokaman'
p215
(dp216
S'digit2successes'
p217
I2
sS'digit6successes'
p218
I1
sS'digit1attempts'
p219
I3
sS'digit0successes'
p220
I1
sS'digit4successes'
p221
I2
sS'digit3successes'
p222
I1
sS'digit5successes'
p223
I1
sS'digit6attempts'
p224
I2
sS'digit9attempts'
p225
I2
sS'digit8successes'
p226
I1
sS'digit3attempts'
p227
I3
sS'digit2attempts'
p228
I3
sS'digit5attempts'
p229
I2
sS'digit7attempts'
p230
I2
sS'numCoins'
p231
I1
sS'digit0attempts'
p232
I3
sS'digit8attempts'
p233
I2
sS'digit1successes'
p234
I1
sS'logins'
p235
I1
sS'digit4attempts'
p236
I3
sS'currDigitDict'
p237
(lp238
I0
aI1
aI2
aI3
aI4
aI5
aI6
aI7
aI8
aI9
assS'kevinyang'
p239
(dp240
S'logins'
p241
I1
sS'digit0successes'
p242
I1
sS'digit0attempts'
p243
I3
sS'digit1attempts'
p244
I2
sS'digit2attempts'
p245
I2
sS'numCoins'
p246
I1
sS'digit1successes'
p247
I1
sS'currDigitDict'
p248
(lp249
I0
aI1
aI2
assS'sdffw'
p250
(dp251
S'digit0attempts'
p252
I5
sS'logins'
p253
I1
sS'digit0successes'
p254
I4
sS'digit1attempts'
p255
I5
sS'digit2attempts'
p256
I4
sS'numCoins'
p257
I11
sS'digit1successes'
p258
I4
sS'currDigitDict'
p259
(lp260
I0
aI1
aI2
assS'vanessatest'
p261
(dp262
S'digit2successes'
p263
I3
sS'digit4attempts'
p264
I4
sS'digit1attempts'
p265
I5
sS'digit0successes'
p266
I4
sS'digit3successes'
p267
I3
sS'digit5successes'
p268
I1
sS'digit6attempts'
p269
I2
sS'digit9attempts'
p270
I2
sS'digit0attempts'
p271
I5
sS'digit3attempts'
p272
I4
sS'digit2attempts'
p273
I4
sS'digit5attempts'
p274
I4
sS'digit7attempts'
p275
I2
sS'numCoins'
p276
I8
sS'digit8attempts'
p277
I2
sS'digit1successes'
p278
I4
sS'logins'
p279
I2
sS'digit4successes'
p280
I1
sS'currDigitDict'
p281
(lp282
I0
aI1
aI2
aI3
aI4
aI5
aI6
aI7
aI8
aI9
assS'jack'
p283
(dp284
S'digit2successes'
p285
I2
sS'logins'
p286
I1
sS'digit0successes'
p287
I2
sS'digit3successes'
p288
I1
sS'digit0attempts'
p289
I3
sS'digit3attempts'
p290
I2
sS'digit2attempts'
p291
I3
sS'digit1attempts'
p292
I3
sS'numCoins'
p293
I1
sS'digit5attempts'
p294
I2
sS'digit1successes'
p295
I1
sS'digit4attempts'
p296
I2
sS'currDigitDict'
p297
(lp298
I0
aI1
aI2
aI3
aI4
aI5
assS'dfsdfdsf'
p299
(dp300
S'logins'
p301
I1
sS'digit0successes'
p302
I1
sS'digit0attempts'
p303
I2
sS'digit1attempts'
p304
I2
sS'digit2attempts'
p305
I2
sS'numCoins'
p306
I1
sS'digit1successes'
p307
I1
sS'currDigitDict'
p308
(lp309
I0
aI1
aI2
assS'ddvsv'
p310
(dp311
S'digit6successes'
p312
I1
sS'digit1attempts'
p313
I3
sS'digit5successes'
p314
I1
sS'digit9attempts'
p315
I2
sS'digit3attempts'
p316
I3
sS'numCoins'
p317
I16
sS'digit4successes'
p318
I1
sS'currDigitDict'
p319
(lp320
I0
aI1
aI2
aI3
aI4
aI5
aI6
aI7
aI8
aI9
asS'digit7successes'
p321
I1
sS'digit6attempts'
p322
I2
sS'digit8successes'
p323
I1
sS'digit5attempts'
p324
I2
sS'digit8attempts'
p325
I2
sS'digit1successes'
p326
I1
sS'digit2successes'
p327
I2
sS'logins'
p328
I1
sS'digit2attempts'
p329
I3
sS'digit4attempts'
p330
I2
sS'digit9successes'
p331
I1
sS'digit0successes'
p332
I2
sS'digit3successes'
p333
I2
sS'digit7attempts'
p334
I2
sS'digit0attempts'
p335
I3
ssS'habba!'
p336
(dp337
S'digit2successes'
p338
I1
sS'logins'
p339
I1
sS'digit0attempts'
p340
I2
sS'digit1attempts'
p341
I2
sS'digit2attempts'
p342
I2
sS'numCoins'
p343
I1
sS'currDigitDict'
p344
(lp345
I0
aI1
aI2
assS'efwf'
p346
(dp347
S'digit2successes'
p348
I1
sS'logins'
p349
I1
sS'digit0successes'
p350
I1
sS'digit3successes'
p351
I1
sS'digit4successes'
p352
I1
sS'digit0attempts'
p353
I2
sS'digit3attempts'
p354
I2
sS'digit2attempts'
p355
I2
sS'digit1attempts'
p356
I2
sS'numCoins'
p357
I9
sS'digit1successes'
p358
I1
sS'digit4attempts'
p359
I2
sS'currDigitDict'
p360
(lp361
I0
aI1
aI2
aI3
aI4
aI5
assS'fsdfdsbs'
p362
(dp363
S'digit2successes'
p364
I2
sS'logins'
p365
I1
sS'digit0successes'
p366
I3
sS'digit3successes'
p367
I2
sS'digit0attempts'
p368
I4
sS'digit3attempts'
p369
I3
sS'digit2attempts'
p370
I3
sS'digit1attempts'
p371
I3
sS'numCoins'
p372
I6
sS'digit5attempts'
p373
I3
sS'digit1successes'
p374
I2
sS'digit4attempts'
p375
I3
sS'currDigitDict'
p376
(lp377
I0
aI1
aI2
aI3
aI4
aI5
assS'Turkey'
p378
(dp379
S'logins'
p380
I1
sS'digit0attempts'
p381
I2
sS'digit1attempts'
p382
I2
sS'digit2attempts'
p383
I2
sS'numCoins'
p384
I0
sS'currDigitDict'
p385
(lp386
I0
aI1
aI2
assS'Jackson'
p387
(dp388
S'digit2successes'
p389
I1
sS'logins'
p390
I1
sS'digit0successes'
p391
I1
sS'digit3successes'
p392
I1
sS'digit0attempts'
p393
I2
sS'digit3attempts'
p394
I2
sS'digit2attempts'
p395
I2
sS'digit1attempts'
p396
I2
sS'numCoins'
p397
I4
sS'digit1successes'
p398
I1
sS'currDigitDict'
p399
(lp400
I0
aI1
aI2
aI3
aI4
aI5
assS'vsv'
p401
(dp402
S'logins'
p403
I1
sS'digit0successes'
p404
I5
sS'digit0attempts'
p405
I6
sS'digit1attempts'
p406
I5
sS'digit2attempts'
p407
I5
sS'numCoins'
p408
I10
sS'digit1successes'
p409
I4
sS'currDigitDict'
p410
(lp411
I0
aI1
aI2
assS'fsdfsdfds'
p412
(dp413
S'digit2successes'
p414
I1
sS'digit0attempts'
p415
I2
sS'logins'
p416
I1
sS'digit0successes'
p417
I1
sS'digit1attempts'
p418
I2
sS'digit2attempts'
p419
I2
sS'numCoins'
p420
I1
sS'currDigitDict'
p421
(lp422
I0
aI1
aI2
assS'bahahasjdfkld'
p423
(dp424
S'logins'
p425
I1
sS'digit0attempts'
p426
I2
sS'numCoins'
p427
I1
sS'currDigitDict'
p428
(lp429
I0
aI1
aI2
asS'digit0successes'
p430
I1
ssS'Tina'
p431
(dp432
S'digit2successes'
p433
I1
sS'logins'
p434
I1
sS'digit0successes'
p435
I2
sS'digit3successes'
p436
I1
sS'digit5successes'
p437
I1
sS'digit0attempts'
p438
I3
sS'digit3attempts'
p439
I3
sS'digit2attempts'
p440
I2
sS'digit1attempts'
p441
I2
sS'numCoins'
p442
I5
sS'digit5attempts'
p443
I2
sS'digit1successes'
p444
I1
sS'currDigitDict'
p445
(lp446
I0
aI1
aI2
aI3
aI4
aI5
assS'sdfdsfdsfsd'
p447
(dp448
S'digit2successes'
p449
I1
sS'digit0attempts'
p450
I2
sS'logins'
p451
I1
sS'digit0successes'
p452
I1
sS'digit1attempts'
p453
I2
sS'digit2attempts'
p454
I2
sS'numCoins'
p455
I3
sS'digit1successes'
p456
I1
sS'currDigitDict'
p457
(lp458
I0
aI1
aI2
aI3
aI4
aI5
assS'tesrboy'
p459
(dp460
S'logins'
p461
I1
sS'digit0attempts'
p462
I2
sS'numCoins'
p463
I1
sS'currDigitDict'
p464
(lp465
I0
aI1
aI2
asS'digit0successes'
p466
I1
ssS'sdfsd'
p467
(dp468
S'logins'
p469
I1
sS'digit0attempts'
p470
I2
sS'numCoins'
p471
I1
sS'currDigitDict'
p472
(lp473
I0
aI1
aI2
asS'digit0successes'
p474
I1
ssS'Mike'
p475
(dp476
S'logins'
p477
I1
sS'digit0successes'
p478
I1
sS'digit0attempts'
p479
I2
sS'digit1attempts'
p480
I2
sS'numCoins'
p481
I2
sS'digit1successes'
p482
I1
sS'currDigitDict'
p483
(lp484
I0
aI1
aI2
assS'whatup'
p485
(dp486
S'digit6successes'
p487
I1
sS'digit1attempts'
p488
I6
sS'digit5successes'
p489
I2
sS'digit9attempts'
p490
I4
sS'digit3attempts'
p491
I4
sS'numCoins'
p492
I3
sS'digit4successes'
p493
I1
sS'currDigitDict'
p494
(lp495
I0
aI1
aI2
aI3
aI4
aI5
aI6
aI7
aI8
aI9
asS'digit7successes'
p496
I3
sS'digit6attempts'
p497
I4
sS'digit8successes'
p498
I2
sS'digit5attempts'
p499
I4
sS'digit8attempts'
p500
I4
sS'digit1successes'
p501
I4
sS'digit2successes'
p502
I1
sS'logins'
p503
I1
sS'digit2attempts'
p504
I6
sS'digit4attempts'
p505
I4
sS'digit9successes'
p506
I3
sS'digit0successes'
p507
I3
sS'digit3successes'
p508
I2
sS'digit7attempts'
p509
I4
sS'digit0attempts'
p510
I6
ssS'vsdvdsvsdv'
p511
(dp512
S'digit2successes'
p513
I1
sS'logins'
p514
I1
sS'digit0successes'
p515
I2
sS'digit3successes'
p516
I1
sS'digit0attempts'
p517
I3
sS'digit3attempts'
p518
I2
sS'digit2attempts'
p519
I3
sS'digit1attempts'
p520
I3
sS'numCoins'
p521
I2
sS'digit1successes'
p522
I1
sS'digit4attempts'
p523
I2
sS'currDigitDict'
p524
(lp525
I0
aI1
aI2
aI3
aI4
aI5
assS'javathehut'
p526
(dp527
S'digit7successes'
p528
I1
sS'digit2successes'
p529
I2
sS'digit6successes'
p530
I2
sS'digit1attempts'
p531
I4
sS'digit0successes'
p532
I1
sS'digit3successes'
p533
I2
sS'digit5successes'
p534
I2
sS'digit6attempts'
p535
I3
sS'digit9attempts'
p536
I3
sS'logins'
p537
I1
sS'digit3attempts'
p538
I3
sS'digit2attempts'
p539
I3
sS'digit5attempts'
p540
I3
sS'digit7attempts'
p541
I3
sS'numCoins'
p542
I0
sS'digit0attempts'
p543
I4
sS'digit8attempts'
p544
I3
sS'digit1successes'
p545
I2
sS'digit4successes'
p546
I2
sS'digit4attempts'
p547
I3
sS'currDigitDict'
p548
(lp549
I0
aI1
aI2
aI3
aI4
aI5
aI6
aI7
aI8
aI9
assS'sdlfjdslkfjsdlk'
p550
(dp551
S'digit7successes'
p552
I1
sS'digit2successes'
p553
I4
sS'digit6successes'
p554
I1
sS'digit1attempts'
p555
I5
sS'digit0successes'
p556
I3
sS'digit3successes'
p557
I4
sS'digit5successes'
p558
I2
sS'digit6attempts'
p559
I2
sS'logins'
p560
I1
sS'digit3attempts'
p561
I5
sS'digit2attempts'
p562
I5
sS'digit5attempts'
p563
I5
sS'digit7attempts'
p564
I2
sS'numCoins'
p565
I8
sS'digit0attempts'
p566
I5
sS'digit8attempts'
p567
I2
sS'digit1successes'
p568
I4
sS'digit4successes'
p569
I1
sS'digit4attempts'
p570
I5
sS'currDigitDict'
p571
(lp572
I0
aI1
aI2
aI3
aI4
aI5
aI6
aI7
aI8
aI9
assS'sdfds'
p573
(dp574
S'digit6successes'
p575
I4
sS'digit1attempts'
p576
I6
sS'digit5successes'
p577
I5
sS'digit9attempts'
p578
I6
sS'digit3attempts'
p579
I6
sS'numCoins'
p580
I95
sS'digit4successes'
p581
I5
sS'currDigitDict'
p582
(lp583
I0
aI1
aI2
aI3
aI4
aI5
aI6
aI7
aI8
aI9
asS'digit7successes'
p584
I1
sS'digit6attempts'
p585
I6
sS'digit8successes'
p586
I5
sS'digit5attempts'
p587
I6
sS'digit8attempts'
p588
I6
sS'digit1successes'
p589
I5
sS'digit2successes'
p590
I5
sS'logins'
p591
I1
sS'digit2attempts'
p592
I6
sS'digit4attempts'
p593
I6
sS'digit9successes'
p594
I5
sS'digit0successes'
p595
I6
sS'digit3successes'
p596
I5
sS'digit7attempts'
p597
I6
sS'digit0attempts'
p598
I7
ssS'Joe'
p599
(dp600
S'digit1attempts'
p601
I2
sS'digit5successes'
p602
I1
sS'digit9attempts'
p603
I2
sS'digit3attempts'
p604
I2
sS'numCoins'
p605
I7
sS'digit4successes'
p606
I1
sS'currDigitDict'
p607
(lp608
I0
aI1
aI2
aI3
aI4
aI5
aI6
aI7
aI8
aI9
asS'digit7successes'
p609
I1
sS'digit6attempts'
p610
I2
sS'digit8successes'
p611
I1
sS'digit5attempts'
p612
I2
sS'digit8attempts'
p613
I2
sS'digit1successes'
p614
I1
sS'digit2successes'
p615
I1
sS'logins'
p616
I1
sS'digit2attempts'
p617
I2
sS'digit4attempts'
p618
I2
sS'digit9successes'
p619
I1
sS'digit0successes'
p620
I1
sS'digit3successes'
p621
I1
sS'digit7attempts'
p622
I2
sS'digit0attempts'
p623
I3
ssS'asjdfjsda'
p624
(dp625
S'digit1attempts'
p626
I3
sS'digit5successes'
p627
I1
sS'digit9attempts'
p628
I2
sS'digit3attempts'
p629
I3
sS'numCoins'
p630
I21
sS'digit4successes'
p631
I2
sS'currDigitDict'
p632
(lp633
I0
aI1
aI2
aI3
aI4
aI5
aI6
aI7
aI8
aI9
asS'digit7successes'
p634
I1
sS'digit6attempts'
p635
I2
sS'digit8successes'
p636
I1
sS'digit5attempts'
p637
I2
sS'digit8attempts'
p638
I2
sS'digit1successes'
p639
I2
sS'digit2successes'
p640
I2
sS'logins'
p641
I1
sS'digit2attempts'
p642
I3
sS'digit4attempts'
p643
I3
sS'digit9successes'
p644
I1
sS'digit0successes'
p645
I2
sS'digit3successes'
p646
I2
sS'digit7attempts'
p647
I2
sS'digit0attempts'
p648
I3
ssS'bahooga'
p649
(dp650
S'digit2successes'
p651
I2
sS'logins'
p652
I1
sS'digit0successes'
p653
I2
sS'digit3successes'
p654
I2
sS'digit4successes'
p655
I1
sS'digit0attempts'
p656
I3
sS'digit3attempts'
p657
I3
sS'digit2attempts'
p658
I3
sS'digit1attempts'
p659
I3
sS'numCoins'
p660
I18
sS'digit5attempts'
p661
I2
sS'digit1successes'
p662
I2
sS'digit4attempts'
p663
I2
sS'currDigitDict'
p664
(lp665
I0
aI1
aI2
aI3
aI4
aI5
assS'jackkiiee'
p666
(dp667
S'digit2successes'
p668
I1
sS'digit0attempts'
p669
I2
sS'logins'
p670
I1
sS'digit0successes'
p671
I1
sS'digit1attempts'
p672
I2
sS'digit2attempts'
p673
I2
sS'numCoins'
p674
I1
sS'currDigitDict'
p675
(lp676
I0
aI1
aI2
assS'fewgwegweg'
p677
(dp678
S'logins'
p679
I1
sS'numCoins'
p680
I0
sS'currDigitDict'
p681
(lp682
I0
aI1
aI2
assS'sdlkfjsdfsdf'
p683
(dp684
S'digit2successes'
p685
I1
sS'logins'
p686
I1
sS'digit0successes'
p687
I1
sS'digit1attempts'
p688
I3
sS'digit5successes'
p689
I1
sS'digit0attempts'
p690
I3
sS'digit3attempts'
p691
I2
sS'digit2attempts'
p692
I2
sS'digit5attempts'
p693
I2
sS'numCoins'
p694
I0
sS'digit1successes'
p695
I1
sS'digit4attempts'
p696
I2
sS'currDigitDict'
p697
(lp698
I0
aI1
aI2
aI3
aI4
aI5
assS'plzwork2394324'
p699
(dp700
S'logins'
p701
I1
sS'digit0successes'
p702
I4
sS'digit0attempts'
p703
I5
sS'digit1attempts'
p704
I5
sS'digit2attempts'
p705
I4
sS'numCoins'
p706
I7
sS'digit1successes'
p707
I4
sS'currDigitDict'
p708
(lp709
I0
aI1
aI2
assS'vsdvsdv'
p710
(dp711
S'digit2successes'
p712
I1
sS'logins'
p713
I2
sS'digit0successes'
p714
I4
sS'digit0attempts'
p715
I5
sS'digit1attempts'
p716
I4
sS'digit2attempts'
p717
I4
sS'numCoins'
p718
I3
sS'digit1successes'
p719
I1
sS'currDigitDict'
p720
(lp721
I0
aI1
aI2
aI3
aI4
aI5
assS'hehehe'
p722
(dp723
S'digit2successes'
p724
I1
sS'digit0attempts'
p725
I2
sS'logins'
p726
I1
sS'digit0successes'
p727
I1
sS'digit1attempts'
p728
I2
sS'digit2attempts'
p729
I2
sS'numCoins'
p730
I3
sS'digit1successes'
p731
I1
sS'currDigitDict'
p732
(lp733
I0
aI1
aI2
aI3
aI4
aI5
assS'oohh'
p734
(dp735
S'digit6successes'
p736
I1
sS'digit1attempts'
p737
I3
sS'digit5successes'
p738
I1
sS'digit9attempts'
p739
I2
sS'digit3attempts'
p740
I3
sS'numCoins'
p741
I14
sS'digit4successes'
p742
I1
sS'currDigitDict'
p743
(lp744
I0
aI1
aI2
aI3
aI4
aI5
aI6
aI7
aI8
aI9
asS'digit7successes'
p745
I1
sS'digit6attempts'
p746
I2
sS'digit8successes'
p747
I1
sS'digit5attempts'
p748
I2
sS'digit8attempts'
p749
I2
sS'digit1successes'
p750
I2
sS'digit2successes'
p751
I2
sS'logins'
p752
I1
sS'digit2attempts'
p753
I3
sS'digit4attempts'
p754
I2
sS'digit9successes'
p755
I1
sS'digit0successes'
p756
I2
sS'digit3successes'
p757
I2
sS'digit7attempts'
p758
I2
sS'digit0attempts'
p759
I3
ssS'lovable'
p760
(dp761
S'digit2successes'
p762
I1
sS'digit4attempts'
p763
I2
sS'digit6successes'
p764
I1
sS'digit1attempts'
p765
I3
sS'digit0successes'
p766
I2
sS'digit3successes'
p767
I1
sS'digit5successes'
p768
I1
sS'digit6attempts'
p769
I2
sS'digit9attempts'
p770
I2
sS'logins'
p771
I1
sS'digit3attempts'
p772
I2
sS'digit2attempts'
p773
I3
sS'digit5attempts'
p774
I2
sS'digit7attempts'
p775
I2
sS'numCoins'
p776
I0
sS'digit0attempts'
p777
I3
sS'digit8attempts'
p778
I2
sS'digit1successes'
p779
I2
sS'digit4successes'
p780
I1
sS'currDigitDict'
p781
(lp782
I0
aI1
aI2
aI3
aI4
aI5
aI6
aI7
aI8
aI9
assS'bnksdfl'
p783
(dp784
S'digit2successes'
p785
I1
sS'logins'
p786
I1
sS'digit0successes'
p787
I2
sS'digit3successes'
p788
I1
sS'digit5successes'
p789
I1
sS'digit0attempts'
p790
I3
sS'digit3attempts'
p791
I2
sS'digit2attempts'
p792
I2
sS'digit1attempts'
p793
I3
sS'numCoins'
p794
I11
sS'digit5attempts'
p795
I2
sS'digit1successes'
p796
I2
sS'digit4attempts'
p797
I2
sS'currDigitDict'
p798
(lp799
I0
aI1
aI2
aI3
aI4
aI5
assS'Isaac'
p800
(dp801
S'logins'
p802
I2
sS'digit0attempts'
p803
I2
sS'digit1attempts'
p804
I2
sS'numCoins'
p805
I1
sS'digit1successes'
p806
I1
sS'currDigitDict'
p807
(lp808
I0
aI1
aI2
assS'Henlo'
p809
(dp810
S'digit2successes'
p811
I1
sS'digit0attempts'
p812
I2
sS'logins'
p813
I1
sS'digit0successes'
p814
I1
sS'digit1attempts'
p815
I2
sS'digit2attempts'
p816
I2
sS'numCoins'
p817
I3
sS'digit1successes'
p818
I1
sS'currDigitDict'
p819
(lp820
I0
aI1
aI2
aI3
aI4
aI5
assS'dsfsdfs'
p821
(dp822
S'digit2successes'
p823
I1
sS'logins'
p824
I1
sS'digit0successes'
p825
I1
sS'digit3successes'
p826
I1
sS'digit5successes'
p827
I1
sS'digit4successes'
p828
I1
sS'digit0attempts'
p829
I2
sS'digit3attempts'
p830
I2
sS'digit2attempts'
p831
I2
sS'digit1attempts'
p832
I2
sS'numCoins'
p833
I10
sS'digit5attempts'
p834
I2
sS'digit1successes'
p835
I1
sS'digit4attempts'
p836
I2
sS'currDigitDict'
p837
(lp838
I0
aI1
aI2
aI3
aI4
aI5
aI6
aI7
aI8
aI9
assS'tina'
p839
(dp840
S'logins'
p841
I1
sS'numCoins'
p842
I0
sS'currDigitDict'
p843
(lp844
I0
aI1
aI2
assS'Connor'
p845
(dp846
S'digit6successes'
p847
I2
sS'digit1attempts'
p848
I5
sS'digit5successes'
p849
I2
sS'digit9attempts'
p850
I3
sS'digit3attempts'
p851
I4
sS'numCoins'
p852
I7
sS'digit4successes'
p853
I2
sS'currDigitDict'
p854
(lp855
I0
aI1
aI2
aI3
aI4
aI5
aI6
aI7
aI8
aI9
asS'digit7successes'
p856
I1
sS'digit6attempts'
p857
I3
sS'digit8successes'
p858
I2
sS'digit5attempts'
p859
I3
sS'digit8attempts'
p860
I3
sS'digit1successes'
p861
I3
sS'digit2successes'
p862
I3
sS'logins'
p863
I3
sS'digit2attempts'
p864
I4
sS'digit4attempts'
p865
I3
sS'digit9successes'
p866
I2
sS'digit0successes'
p867
I3
sS'digit3successes'
p868
I3
sS'digit7attempts'
p869
I3
sS'digit0attempts'
p870
I5
ssS'yaha'
p871
(dp872
S'logins'
p873
I1
sS'numCoins'
p874
I0
sS'currDigitDict'
p875
(lp876
I0
aI1
aI2
assS'newUserBaddd'
p877
(dp878
S'digit6successes'
p879
I3
sS'digit1attempts'
p880
I7
sS'digit5successes'
p881
I5
sS'digit9attempts'
p882
I5
sS'digit3attempts'
p883
I7
sS'numCoins'
p884
I1
sS'digit4successes'
p885
I4
sS'currDigitDict'
p886
(lp887
I0
aI1
aI2
aI3
aI4
aI5
aI6
aI7
aI8
aI9
asS'digit7successes'
p888
I1
sS'digit6attempts'
p889
I7
sS'digit8successes'
p890
I3
sS'digit5attempts'
p891
I7
sS'digit8attempts'
p892
I4
sS'digit1successes'
p893
I4
sS'digit2successes'
p894
I4
sS'logins'
p895
I3
sS'digit2attempts'
p896
I7
sS'digit4attempts'
p897
I7
sS'digit9successes'
p898
I4
sS'digit0successes'
p899
I4
sS'digit3successes'
p900
I4
sS'digit7attempts'
p901
I7
sS'digit0attempts'
p902
I8
ssS'asdfasdfds'
p903
(dp904
S'logins'
p905
I1
sS'digit0attempts'
p906
I2
sS'currDigitDict'
p907
(lp908
I0
aI1
aI2
asS'numCoins'
p909
I1
sS'digit0successes'
p910
I1
ssS'sdf'
p911
(dp912
S'digit2successes'
p913
I1
sS'logins'
p914
I1
sS'digit0successes'
p915
I1
sS'digit3successes'
p916
I1
sS'digit3attempts'
p917
I2
sS'digit5successes'
p918
I1
sS'digit4successes'
p919
I1
sS'digit0attempts'
p920
I2
sS'digit1attempts'
p921
I2
sS'digit2attempts'
p922
I2
sS'digit5attempts'
p923
I2
sS'numCoins'
p924
I10
sS'digit1successes'
p925
I1
sS'digit4attempts'
p926
I2
sS'currDigitDict'
p927
(lp928
I0
aI1
aI2
aI3
aI4
aI5
aI6
aI7
aI8
aI9
assS'vanessatesstplz'
p929
(dp930
S'digit2successes'
p931
I1
sS'logins'
p932
I1
sS'digit0successes'
p933
I1
sS'digit0attempts'
p934
I2
sS'digit1attempts'
p935
I2
sS'digit2attempts'
p936
I2
sS'numCoins'
p937
I3
sS'digit1successes'
p938
I1
sS'currDigitDict'
p939
(lp940
I0
aI1
aI2
aI3
aI4
aI5
assS'sldkfjsdlkfs'
p941
(dp942
S'logins'
p943
I1
sS'digit0successes'
p944
I1
sS'digit0attempts'
p945
I2
sS'digit1attempts'
p946
I2
sS'digit2attempts'
p947
I2
sS'numCoins'
p948
I1
sS'digit1successes'
p949
I1
sS'currDigitDict'
p950
(lp951
I0
aI1
aI2
assS'johnnkk'
p952
(dp953
S'logins'
p954
I1
sS'numCoins'
p955
I0
sS'currDigitDict'
p956
(lp957
I0
aI1
aI2
assS'tean the bean'
p958
(dp959
S'digit6successes'
p960
I1
sS'digit1attempts'
p961
I6
sS'digit5successes'
p962
I3
sS'digit9attempts'
p963
I4
sS'digit3attempts'
p964
I5
sS'numCoins'
p965
I4
sS'digit4successes'
p966
I4
sS'currDigitDict'
p967
(lp968
I0
aI1
aI2
aI3
aI4
aI5
aI6
aI7
aI8
aI9
asS'digit7successes'
p969
I1
sS'digit6attempts'
p970
I4
sS'digit8successes'
p971
I1
sS'digit5attempts'
p972
I4
sS'digit8attempts'
p973
I4
sS'digit1successes'
p974
I3
sS'digit2successes'
p975
I3
sS'logins'
p976
I1
sS'digit2attempts'
p977
I6
sS'digit4attempts'
p978
I5
sS'digit9successes'
p979
I2
sS'digit0successes'
p980
I2
sS'digit3successes'
p981
I4
sS'digit7attempts'
p982
I4
sS'digit0attempts'
p983
I6
ssS'vsdvsdvsdvds'
p984
(dp985
S'logins'
p986
I1
sS'currDigitDict'
p987
(lp988
I0
aI1
aI2
asS'numCoins'
p989
I0
ssS'gooba'
p990
(dp991
S'digit2successes'
p992
I1
sS'digit0attempts'
p993
I2
sS'logins'
p994
I1
sS'digit0successes'
p995
I1
sS'digit1attempts'
p996
I2
sS'digit2attempts'
p997
I2
sS'numCoins'
p998
I3
sS'digit1successes'
p999
I1
sS'currDigitDict'
p1000
(lp1001
I0
aI1
aI2
aI3
aI4
aI5
assS'svsdvs'
p1002
(dp1003
S'logins'
p1004
I1
sS'digit0successes'
p1005
I1
sS'digit0attempts'
p1006
I2
sS'digit1attempts'
p1007
I2
sS'numCoins'
p1008
I0
sS'currDigitDict'
p1009
(lp1010
I0
aI1
aI2
assS'klajsdflkajsdlfk'
p1011
(dp1012
S'digit0attempts'
p1013
I2
sS'logins'
p1014
I1
sS'digit0successes'
p1015
I1
sS'digit1attempts'
p1016
I2
sS'digit2attempts'
p1017
I2
sS'numCoins'
p1018
I1
sS'digit1successes'
p1019
I1
sS'currDigitDict'
p1020
(lp1021
I0
aI1
aI2
assS'kaboocha'
p1022
(dp1023
S'digit0attempts'
p1024
I3
sS'logins'
p1025
I1
sS'digit0successes'
p1026
I1
sS'digit1attempts'
p1027
I2
sS'digit2attempts'
p1028
I2
sS'numCoins'
p1029
I0
sS'digit1successes'
p1030
I1
sS'currDigitDict'
p1031
(lp1032
I0
aI1
aI2
assS'lkjlkjkl'
p1033
(dp1034
S'digit2successes'
p1035
I1
sS'logins'
p1036
I1
sS'digit0successes'
p1037
I1
sS'digit3successes'
p1038
I1
sS'digit4attempts'
p1039
I2
sS'digit0attempts'
p1040
I2
sS'digit3attempts'
p1041
I2
sS'digit2attempts'
p1042
I2
sS'digit1attempts'
p1043
I2
sS'numCoins'
p1044
I9
sS'digit1successes'
p1045
I1
sS'digit4successes'
p1046
I1
sS'currDigitDict'
p1047
(lp1048
I0
aI1
aI2
aI3
aI4
aI5
assS'dababy'
p1049
(dp1050
S'digit2successes'
p1051
I1
sS'logins'
p1052
I1
sS'digit0successes'
p1053
I2
sS'digit3successes'
p1054
I2
sS'digit5successes'
p1055
I1
sS'digit0attempts'
p1056
I3
sS'digit3attempts'
p1057
I3
sS'digit2attempts'
p1058
I3
sS'digit1attempts'
p1059
I3
sS'numCoins'
p1060
I14
sS'digit5attempts'
p1061
I2
sS'digit1successes'
p1062
I2
sS'digit4attempts'
p1063
I2
sS'currDigitDict'
p1064
(lp1065
I0
aI1
aI2
aI3
aI4
aI5
assS'lsdfjsd'
p1066
(dp1067
S'digit9successes'
p1068
I1
sS'digit2successes'
p1069
I3
sS'digit4attempts'
p1070
I3
sS'digit0attempts'
p1071
I4
sS'digit1attempts'
p1072
I4
sS'digit0successes'
p1073
I3
sS'digit3successes'
p1074
I1
sS'digit5successes'
p1075
I1
sS'digit6attempts'
p1076
I2
sS'digit9attempts'
p1077
I2
sS'digit8successes'
p1078
I1
sS'digit3attempts'
p1079
I3
sS'digit2attempts'
p1080
I4
sS'digit5attempts'
p1081
I3
sS'digit7attempts'
p1082
I2
sS'numCoins'
p1083
I4
sS'digit8attempts'
p1084
I2
sS'digit1successes'
p1085
I2
sS'logins'
p1086
I1
sS'digit4successes'
p1087
I2
sS'currDigitDict'
p1088
(lp1089
I0
aI1
aI2
aI3
aI4
aI5
aI6
aI7
aI8
aI9
assS'fewfwef'
p1090
(dp1091
S'digit2successes'
p1092
I1
sS'logins'
p1093
I1
sS'digit0successes'
p1094
I2
sS'digit3successes'
p1095
I1
sS'digit4attempts'
p1096
I2
sS'digit0attempts'
p1097
I3
sS'digit3attempts'
p1098
I2
sS'digit2attempts'
p1099
I2
sS'digit1attempts'
p1100
I3
sS'numCoins'
p1101
I8
sS'digit5attempts'
p1102
I2
sS'digit1successes'
p1103
I1
sS'digit4successes'
p1104
I1
sS'currDigitDict'
p1105
(lp1106
I0
aI1
aI2
aI3
aI4
aI5
assS'jljkj'
p1107
(dp1108
S'digit2successes'
p1109
I1
sS'logins'
p1110
I1
sS'digit0successes'
p1111
I1
sS'digit3successes'
p1112
I1
sS'digit5successes'
p1113
I1
sS'digit4attempts'
p1114
I2
sS'digit0attempts'
p1115
I2
sS'digit3attempts'
p1116
I2
sS'digit2attempts'
p1117
I2
sS'digit1attempts'
p1118
I2
sS'numCoins'
p1119
I10
sS'digit5attempts'
p1120
I2
sS'digit1successes'
p1121
I1
sS'digit4successes'
p1122
I1
sS'currDigitDict'
p1123
(lp1124
I0
aI1
aI2
aI3
aI4
aI5
aI6
aI7
aI8
aI9
assS'klklkl'
p1125
(dp1126
S'digit2successes'
p1127
I1
sS'logins'
p1128
I1
sS'digit0successes'
p1129
I1
sS'digit3successes'
p1130
I1
sS'digit4attempts'
p1131
I2
sS'digit0attempts'
p1132
I2
sS'digit3attempts'
p1133
I2
sS'digit2attempts'
p1134
I2
sS'digit1attempts'
p1135
I2
sS'numCoins'
p1136
I9
sS'digit1successes'
p1137
I1
sS'digit4successes'
p1138
I1
sS'currDigitDict'
p1139
(lp1140
I0
aI1
aI2
aI3
aI4
aI5
assS'connor '
p1141
(dp1142
S'digit2successes'
p1143
I1
sS'logins'
p1144
I1
sS'digit0successes'
p1145
I1
sS'digit0attempts'
p1146
I2
sS'digit1attempts'
p1147
I2
sS'digit2attempts'
p1148
I3
sS'numCoins'
p1149
I2
sS'digit1successes'
p1150
I1
sS'currDigitDict'
p1151
(lp1152
I0
aI1
aI2
aI3
aI4
aI5
assS'hallaaaaa'
p1153
(dp1154
S'digit2successes'
p1155
I2
sS'logins'
p1156
I1
sS'digit0successes'
p1157
I3
sS'digit3successes'
p1158
I1
sS'digit4attempts'
p1159
I3
sS'digit0attempts'
p1160
I6
sS'digit3attempts'
p1161
I3
sS'digit2attempts'
p1162
I5
sS'digit1attempts'
p1163
I5
sS'numCoins'
p1164
I3
sS'digit5attempts'
p1165
I3
sS'digit1successes'
p1166
I3
sS'digit4successes'
p1167
I2
sS'currDigitDict'
p1168
(lp1169
I0
aI1
aI2
aI3
aI4
aI5
assS'kabbito'
p1170
(dp1171
S'digit2successes'
p1172
I1
sS'logins'
p1173
I1
sS'digit0attempts'
p1174
I2
sS'digit1attempts'
p1175
I2
sS'digit2attempts'
p1176
I2
sS'numCoins'
p1177
I2
sS'digit1successes'
p1178
I1
sS'currDigitDict'
p1179
(lp1180
I0
aI1
aI2
assS'slkdfjasldkf'
p1181
(dp1182
S'digit2successes'
p1183
I1
sS'logins'
p1184
I1
sS'digit0successes'
p1185
I1
sS'digit3successes'
p1186
I1
sS'digit4successes'
p1187
I1
sS'digit0attempts'
p1188
I2
sS'digit3attempts'
p1189
I2
sS'digit2attempts'
p1190
I2
sS'digit1attempts'
p1191
I2
sS'numCoins'
p1192
I9
sS'digit1successes'
p1193
I1
sS'digit4attempts'
p1194
I2
sS'currDigitDict'
p1195
(lp1196
I0
aI1
aI2
aI3
aI4
aI5
assS'kevin'
p1197
(dp1198
S'logins'
p1199
I1
sS'numCoins'
p1200
I0
sS'currDigitDict'
p1201
(lp1202
I0
aI1
aI2
assS'Isaac C'
p1203
(dp1204
S'logins'
p1205
I1
sS'currDigitDict'
p1206
(lp1207
I0
aI1
aI2
asS'numCoins'
p1208
I0
ssS'plzwork239420384'
p1209
(dp1210
S'digit6successes'
p1211
I1
sS'digit1attempts'
p1212
I6
sS'digit5successes'
p1213
I1
sS'digit9attempts'
p1214
I2
sS'digit3attempts'
p1215
I3
sS'numCoins'
p1216
I2
sS'digit4successes'
p1217
I2
sS'currDigitDict'
p1218
(lp1219
I0
aI1
aI2
aI3
aI4
aI5
aI6
aI7
aI8
aI9
asS'digit7successes'
p1220
I1
sS'digit6attempts'
p1221
I2
sS'digit8successes'
p1222
I1
sS'digit5attempts'
p1223
I2
sS'digit8attempts'
p1224
I2
sS'digit1successes'
p1225
I4
sS'digit2successes'
p1226
I2
sS'logins'
p1227
I1
sS'digit2attempts'
p1228
I7
sS'digit4attempts'
p1229
I3
sS'digit9successes'
p1230
I1
sS'digit0successes'
p1231
I3
sS'digit3successes'
p1232
I2
sS'digit7attempts'
p1233
I2
sS'digit0attempts'
p1234
I5
ssS'dvdsvdsvsdv'
p1235
(dp1236
S'logins'
p1237
I1
sS'numCoins'
p1238
I0
sS'currDigitDict'
p1239
(lp1240
I0
aI1
aI2
assS'Tester'
p1241
(dp1242
S'logins'
p1243
I1
sS'digit0attempts'
p1244
I2
sS'currDigitDict'
p1245
(lp1246
I0
aI1
aI2
asS'numCoins'
p1247
I0
ssS'Andrew'
p1248
(dp1249
S'logins'
p1250
I1
sS'digit0attempts'
p1251
I2
sS'numCoins'
p1252
I1
sS'currDigitDict'
p1253
(lp1254
I0
aI1
aI2
asS'digit0successes'
p1255
I1
ssS'vsvsvsv'
p1256
(dp1257
S'digit0attempts'
p1258
I2
sS'logins'
p1259
I1
sS'digit0successes'
p1260
I1
sS'digit1attempts'
p1261
I2
sS'digit2attempts'
p1262
I2
sS'numCoins'
p1263
I0
sS'currDigitDict'
p1264
(lp1265
I0
aI1
aI2
assS'brandon'
p1266
(dp1267
S'logins'
p1268
I1
sS'digit0successes'
p1269
I1
sS'digit0attempts'
p1270
I2
sS'digit1attempts'
p1271
I2
sS'digit2attempts'
p1272
I2
sS'numCoins'
p1273
I1
sS'digit1successes'
p1274
I1
sS'currDigitDict'
p1275
(lp1276
I0
aI1
aI2
assS'plzwork1934'
p1277
(dp1278
S'logins'
p1279
I1
sS'currDigitDict'
p1280
(lp1281
I0
aI1
aI2
asS'numCoins'
p1282
I0
ssS'test'
p1283
(dp1284
S'digit2successes'
p1285
I1
sS'logins'
p1286
I1
sS'digit0successes'
p1287
I1
sS'digit3successes'
p1288
I1
sS'digit0attempts'
p1289
I2
sS'digit3attempts'
p1290
I2
sS'digit2attempts'
p1291
I2
sS'digit1attempts'
p1292
I2
sS'numCoins'
p1293
I4
sS'digit1successes'
p1294
I1
sS'currDigitDict'
p1295
(lp1296
I0
aI1
aI2
aI3
aI4
aI5
assS'bahookd'
p1297
(dp1298
S'digit6successes'
p1299
I1
sS'digit1attempts'
p1300
I2
sS'digit5successes'
p1301
I1
sS'digit9attempts'
p1302
I2
sS'digit3attempts'
p1303
I2
sS'numCoins'
p1304
I22
sS'digit4successes'
p1305
I1
sS'currDigitDict'
p1306
(lp1307
I0
aI1
aI2
aI3
aI4
aI5
aI6
aI7
aI8
aI9
asS'digit7successes'
p1308
I1
sS'digit6attempts'
p1309
I2
sS'digit8successes'
p1310
I1
sS'digit5attempts'
p1311
I2
sS'digit8attempts'
p1312
I2
sS'digit1successes'
p1313
I1
sS'digit2successes'
p1314
I1
sS'logins'
p1315
I1
sS'digit2attempts'
p1316
I2
sS'digit4attempts'
p1317
I2
sS'digit9successes'
p1318
I1
sS'digit0successes'
p1319
I1
sS'digit3successes'
p1320
I1
sS'digit7attempts'
p1321
I2
sS'digit0attempts'
p1322
I3
ssS'bsbsfbsf'
p1323
(dp1324
S'digit0attempts'
p1325
I2
sS'logins'
p1326
I1
sS'digit0successes'
p1327
I1
sS'digit1attempts'
p1328
I2
sS'numCoins'
p1329
I2
sS'digit1successes'
p1330
I1
sS'currDigitDict'
p1331
(lp1332
I0
aI1
aI2
assS'norman'
p1333
(dp1334
S'digit2successes'
p1335
I1
sS'logins'
p1336
I1
sS'digit0successes'
p1337
I1
sS'digit3successes'
p1338
I1
sS'digit0attempts'
p1339
I2
sS'digit3attempts'
p1340
I2
sS'digit2attempts'
p1341
I2
sS'digit1attempts'
p1342
I2
sS'numCoins'
p1343
I4
sS'digit1successes'
p1344
I1
sS'currDigitDict'
p1345
(lp1346
I0
aI1
aI2
aI3
aI4
aI5
assS'dsfsdf'
p1347
(dp1348
S'digit2successes'
p1349
I1
sS'logins'
p1350
I1
sS'digit0successes'
p1351
I2
sS'digit3attempts'
p1352
I2
sS'digit5successes'
p1353
I1
sS'digit4successes'
p1354
I1
sS'digit0attempts'
p1355
I3
sS'digit1attempts'
p1356
I2
sS'digit2attempts'
p1357
I2
sS'digit5attempts'
p1358
I2
sS'numCoins'
p1359
I5
sS'digit1successes'
p1360
I1
sS'digit4attempts'
p1361
I2
sS'currDigitDict'
p1362
(lp1363
I0
aI1
aI2
aI3
aI4
aI5
assS'connorsfdsfsdf'
p1364
(dp1365
S'digit0attempts'
p1366
I2
sS'logins'
p1367
I1
sS'digit0successes'
p1368
I1
sS'digit1attempts'
p1369
I2
sS'numCoins'
p1370
I0
sS'currDigitDict'
p1371
(lp1372
I0
aI1
aI2
assS'sdlkfjsdlfds'
p1373
(dp1374
S'logins'
p1375
I1
sS'numCoins'
p1376
I0
sS'currDigitDict'
p1377
(lp1378
I0
aI1
aI2
assS'plzzzz'
p1379
(dp1380
S'digit2successes'
p1381
I1
sS'logins'
p1382
I1
sS'digit0successes'
p1383
I1
sS'digit3successes'
p1384
I1
sS'digit5successes'
p1385
I1
sS'digit4attempts'
p1386
I2
sS'digit0attempts'
p1387
I2
sS'digit3attempts'
p1388
I2
sS'digit2attempts'
p1389
I2
sS'digit1attempts'
p1390
I2
sS'numCoins'
p1391
I11
sS'digit5attempts'
p1392
I2
sS'digit1successes'
p1393
I1
sS'digit4successes'
p1394
I1
sS'currDigitDict'
p1395
(lp1396
I0
aI1
aI2
aI3
aI4
aI5
aI6
aI7
aI8
aI9
assS'joeeey'
p1397
(dp1398
S'logins'
p1399
I1
sS'currDigitDict'
p1400
(lp1401
I0
aI1
aI2
asS'numCoins'
p1402
I0
ssS'connor'
p1403
(dp1404
S'digit6successes'
p1405
I1
sS'digit1attempts'
p1406
I8
sS'digit5successes'
p1407
I4
sS'digit9attempts'
p1408
I2
sS'digit3attempts'
p1409
I7
sS'numCoins'
p1410
I23
sS'digit4successes'
p1411
I4
sS'currDigitDict'
p1412
(lp1413
I0
aI1
aI2
aI3
aI4
aI5
aI6
aI7
aI8
aI9
asS'digit7successes'
p1414
I1
sS'digit6attempts'
p1415
I3
sS'digit8successes'
p1416
I1
sS'digit5attempts'
p1417
I5
sS'digit8attempts'
p1418
I2
sS'digit1successes'
p1419
I6
sS'digit2successes'
p1420
I6
sS'logins'
p1421
I15
sS'digit2attempts'
p1422
I8
sS'digit4attempts'
p1423
I6
sS'digit9successes'
p1424
I1
sS'digit0successes'
p1425
I5
sS'digit3successes'
p1426
I5
sS'digit7attempts'
p1427
I2
sS'digit0attempts'
p1428
I10
ssS'jabaaaka'
p1429
(dp1430
S'digit9successes'
p1431
I1
sS'digit2successes'
p1432
I1
sS'digit1attempts'
p1433
I2
sS'digit0successes'
p1434
I2
sS'digit4successes'
p1435
I1
sS'digit3successes'
p1436
I1
sS'digit5successes'
p1437
I1
sS'digit6attempts'
p1438
I2
sS'digit9attempts'
p1439
I2
sS'digit0attempts'
p1440
I3
sS'digit3attempts'
p1441
I2
sS'digit2attempts'
p1442
I2
sS'digit5attempts'
p1443
I2
sS'digit7attempts'
p1444
I2
sS'numCoins'
p1445
I2
sS'digit8attempts'
p1446
I2
sS'digit1successes'
p1447
I1
sS'logins'
p1448
I1
sS'digit4attempts'
p1449
I2
sS'currDigitDict'
p1450
(lp1451
I0
aI1
aI2
aI3
aI4
aI5
aI6
aI7
aI8
aI9
assS'kobab'
p1452
(dp1453
S'logins'
p1454
I1
sS'currDigitDict'
p1455
(lp1456
I0
aI1
aI2
asS'numCoins'
p1457
I0
ssS'Hallaw'
p1458
(dp1459
S'digit2successes'
p1460
I1
sS'logins'
p1461
I1
sS'digit0successes'
p1462
I1
sS'digit3successes'
p1463
I1
sS'digit5successes'
p1464
I1
sS'digit4successes'
p1465
I1
sS'digit0attempts'
p1466
I2
sS'digit3attempts'
p1467
I2
sS'digit2attempts'
p1468
I2
sS'digit1attempts'
p1469
I2
sS'numCoins'
p1470
I6
sS'digit5attempts'
p1471
I2
sS'digit1successes'
p1472
I1
sS'digit4attempts'
p1473
I2
sS'currDigitDict'
p1474
(lp1475
I0
aI1
aI2
aI3
aI4
aI5
aI6
aI7
aI8
aI9
assS'Another tester'
p1476
(dp1477
S'digit2successes'
p1478
I1
sS'logins'
p1479
I1
sS'digit0successes'
p1480
I1
sS'digit0attempts'
p1481
I2
sS'digit1attempts'
p1482
I2
sS'digit2attempts'
p1483
I2
sS'numCoins'
p1484
I1
sS'currDigitDict'
p1485
(lp1486
I0
aI1
aI2
assS'testman'
p1487
(dp1488
S'digit2successes'
p1489
I1
sS'logins'
p1490
I1
sS'digit0successes'
p1491
I1
sS'digit3successes'
p1492
I1
sS'digit0attempts'
p1493
I3
sS'digit3attempts'
p1494
I2
sS'digit2attempts'
p1495
I3
sS'digit1attempts'
p1496
I3
sS'numCoins'
p1497
I4
sS'digit1successes'
p1498
I1
sS'currDigitDict'
p1499
(lp1500
I0
aI1
aI2
aI3
aI4
aI5
assS'sdlfsdjkfjsdkljf'
p1501
(dp1502
S'logins'
p1503
I1
sS'digit0attempts'
p1504
I2
sS'currDigitDict'
p1505
(lp1506
I0
aI1
aI2
asS'numCoins'
p1507
I0
ss.