(dp0
S'Turkey'
p1
(dp2
S'logins'
p3
I1
sS'digit0attempts'
p4
I2
sS'digit1attempts'
p5
I2
sS'digit2attempts'
p6
I2
sS'numCoins'
p7
I0
sS'currDigitDict'
p8
(lp9
I0
aI1
aI2
assS'Mike'
p10
(dp11
S'logins'
p12
I1
sS'digit0successes'
p13
I1
sS'digit0attempts'
p14
I2
sS'digit1attempts'
p15
I2
sS'numCoins'
p16
I2
sS'digit1successes'
p17
I1
sS'currDigitDict'
p18
(lp19
I0
aI1
aI2
assS'Jackson'
p20
(dp21
S'digit2successes'
p22
I1
sS'logins'
p23
I1
sS'digit0successes'
p24
I1
sS'digit3successes'
p25
I1
sS'digit0attempts'
p26
I2
sS'digit3attempts'
p27
I2
sS'digit2attempts'
p28
I2
sS'digit1attempts'
p29
I2
sS'numCoins'
p30
I4
sS'digit1successes'
p31
I1
sS'currDigitDict'
p32
(lp33
I0
aI1
aI2
aI3
aI4
aI5
assS'Testuser'
p34
(dp35
S'digit0attempts'
p36
I2
sS'logins'
p37
I1
sS'digit0successes'
p38
I1
sS'digit1attempts'
p39
I2
sS'numCoins'
p40
I2
sS'digit1successes'
p41
I1
sS'currDigitDict'
p42
(lp43
I0
aI1
aI2
assS'oohh'
p44
(dp45
S'digit6successes'
p46
I1
sS'digit1attempts'
p47
I3
sS'digit5successes'
p48
I1
sS'digit9attempts'
p49
I2
sS'digit3attempts'
p50
I3
sS'numCoins'
p51
I14
sS'digit4successes'
p52
I1
sS'currDigitDict'
p53
(lp54
I0
aI1
aI2
aI3
aI4
aI5
aI6
aI7
aI8
aI9
asS'digit7successes'
p55
I1
sS'digit6attempts'
p56
I2
sS'digit8successes'
p57
I1
sS'digit5attempts'
p58
I2
sS'digit8attempts'
p59
I2
sS'digit1successes'
p60
I2
sS'digit2successes'
p61
I2
sS'logins'
p62
I1
sS'digit2attempts'
p63
I3
sS'digit4attempts'
p64
I2
sS'digit9successes'
p65
I1
sS'digit0successes'
p66
I2
sS'digit3successes'
p67
I2
sS'digit7attempts'
p68
I2
sS'digit0attempts'
p69
I3
ssS'Tester'
p70
(dp71
S'logins'
p72
I1
sS'digit0attempts'
p73
I2
sS'currDigitDict'
p74
(lp75
I0
aI1
aI2
asS'numCoins'
p76
I0
ssS'Andrew'
p77
(dp78
S'logins'
p79
I1
sS'digit0attempts'
p80
I2
sS'numCoins'
p81
I1
sS'currDigitDict'
p82
(lp83
I0
aI1
aI2
asS'digit0successes'
p84
I1
ssS'Hallaw'
p85
(dp86
S'digit2successes'
p87
I1
sS'logins'
p88
I1
sS'digit0successes'
p89
I1
sS'digit3successes'
p90
I1
sS'digit5successes'
p91
I1
sS'digit4successes'
p92
I1
sS'digit0attempts'
p93
I2
sS'digit3attempts'
p94
I2
sS'digit2attempts'
p95
I2
sS'digit1attempts'
p96
I2
sS'numCoins'
p97
I6
sS'digit5attempts'
p98
I2
sS'digit1successes'
p99
I1
sS'digit4attempts'
p100
I2
sS'currDigitDict'
p101
(lp102
I0
aI1
aI2
aI3
aI4
aI5
aI6
aI7
aI8
aI9
assS'Another tester'
p103
(dp104
S'digit2successes'
p105
I1
sS'logins'
p106
I1
sS'digit0successes'
p107
I1
sS'digit0attempts'
p108
I2
sS'digit1attempts'
p109
I2
sS'digit2attempts'
p110
I2
sS'numCoins'
p111
I1
sS'currDigitDict'
p112
(lp113
I0
aI1
aI2
assS'Joe'
p114
(dp115
S'digit1attempts'
p116
I2
sS'digit5successes'
p117
I1
sS'digit9attempts'
p118
I2
sS'digit3attempts'
p119
I2
sS'numCoins'
p120
I7
sS'digit4successes'
p121
I1
sS'currDigitDict'
p122
(lp123
I0
aI1
aI2
aI3
aI4
aI5
aI6
aI7
aI8
aI9
asS'digit7successes'
p124
I1
sS'digit6attempts'
p125
I2
sS'digit8successes'
p126
I1
sS'digit5attempts'
p127
I2
sS'digit8attempts'
p128
I2
sS'digit1successes'
p129
I1
sS'digit2successes'
p130
I1
sS'logins'
p131
I1
sS'digit2attempts'
p132
I2
sS'digit4attempts'
p133
I2
sS'digit9successes'
p134
I1
sS'digit0successes'
p135
I1
sS'digit3successes'
p136
I1
sS'digit7attempts'
p137
I2
sS'digit0attempts'
p138
I3
ssS'Tina'
p139
(dp140
S'digit2successes'
p141
I1
sS'logins'
p142
I1
sS'digit0successes'
p143
I2
sS'digit3successes'
p144
I1
sS'digit5successes'
p145
I1
sS'digit0attempts'
p146
I3
sS'digit3attempts'
p147
I3
sS'digit2attempts'
p148
I2
sS'digit1attempts'
p149
I2
sS'numCoins'
p150
I5
sS'digit5attempts'
p151
I2
sS'digit1successes'
p152
I1
sS'currDigitDict'
p153
(lp154
I0
aI1
aI2
aI3
aI4
aI5
assS'Connor'
p155
(dp156
S'digit2successes'
p157
I1
sS'logins'
p158
I1
sS'digit0successes'
p159
I1
sS'digit3successes'
p160
I1
sS'digit0attempts'
p161
I2
sS'digit3attempts'
p162
I2
sS'digit2attempts'
p163
I2
sS'digit1attempts'
p164
I2
sS'numCoins'
p165
I4
sS'digit1successes'
p166
I1
sS'currDigitDict'
p167
(lp168
I0
aI1
aI2
aI3
aI4
aI5
assS'joeeey'
p169
(dp170
S'logins'
p171
I1
sS'currDigitDict'
p172
(lp173
I0
aI1
aI2
asS'numCoins'
p174
I0
ss.