(dp0
S'jaja'
p1
(dp2
S'digit2successes'
p3
I3
sS'logins'
p4
I1
sS'digit0successes'
p5
I3
sS'digit3successes'
p6
I2
sS'digit0attempts'
p7
I4
sS'digit3attempts'
p8
I3
sS'digit2attempts'
p9
I4
sS'digit1attempts'
p10
I4
sS'digit1successes'
p11
I3
ssS'jimmy'
p12
(dp13
S'digit2successes'
p14
I4
sS'logins'
p15
I1
sS'digit0successes'
p16
I2
sS'digit3attempts'
p17
I4
sS'digit0attempts'
p18
I7
sS'digit1attempts'
p19
I3
sS'digit2attempts'
p20
I7
sS'digit1successes'
p21
I1
ssS'cb'
p22
(dp23
S'logins'
p24
I1
sS'digit0attempts'
p25
I3
sS'digit3attempts'
p26
I2
sS'digit2attempts'
p27
I2
sS'digit0successes'
p28
I1
ssS'haha'
p29
(dp30
S'digit2successes'
p31
I1
sS'logins'
p32
I3
sS'digit0successes'
p33
I2
sS'digit3successes'
p34
I1
sS'digit0attempts'
p35
I8
sS'digit3attempts'
p36
I6
sS'digit2attempts'
p37
I6
sS'digit1attempts'
p38
I6
sS'digit1successes'
p39
I2
ssS'joe'
p40
(dp41
S'logins'
p42
I2
sS'digit1attempts'
p43
I2
sS'digit3attempts'
p44
I2
sS'digit2attempts'
p45
I2
sS'digit3successes'
p46
I1
ssS'asfas'
p47
(dp48
S'digit2successes'
p49
I3
sS'logins'
p50
I1
sS'digit0successes'
p51
I2
sS'digit3successes'
p52
I3
sS'digit0attempts'
p53
I6
sS'digit3attempts'
p54
I8
sS'digit2attempts'
p55
I8
sS'digit1attempts'
p56
I6
sS'digit1successes'
p57
I1
ss.