(dp0
S'Turkey'
p1
(dp2
S'logins'
p3
I1
sS'digit0attempts'
p4
I2
sS'digit1attempts'
p5
I2
sS'digit2attempts'
p6
I2
sS'numCoins'
p7
I0
sS'currDigitDict'
p8
(lp9
I0
aI1
aI2
assS''
p10
(dp11
S'logins'
p12
I2
sS'numCoins'
p13
I0
sS'currDigitDict'
p14
(lp15
I0
aI1
aI2
assS'hehehe'
p16
(dp17
S'digit2successes'
p18
I1
sS'digit0attempts'
p19
I2
sS'logins'
p20
I1
sS'digit0successes'
p21
I1
sS'digit1attempts'
p22
I2
sS'digit2attempts'
p23
I2
sS'numCoins'
p24
I3
sS'digit1successes'
p25
I1
sS'currDigitDict'
p26
(lp27
I0
aI1
aI2
aI3
aI4
aI5
assS'Jackson'
p28
(dp29
S'digit2successes'
p30
I1
sS'logins'
p31
I1
sS'digit0successes'
p32
I1
sS'digit3successes'
p33
I1
sS'digit0attempts'
p34
I2
sS'digit3attempts'
p35
I2
sS'digit2attempts'
p36
I2
sS'digit1attempts'
p37
I2
sS'numCoins'
p38
I4
sS'digit1successes'
p39
I1
sS'currDigitDict'
p40
(lp41
I0
aI1
aI2
aI3
aI4
aI5
assS'Testuser'
p42
(dp43
S'digit0attempts'
p44
I2
sS'logins'
p45
I1
sS'digit0successes'
p46
I1
sS'digit1attempts'
p47
I2
sS'numCoins'
p48
I2
sS'digit1successes'
p49
I1
sS'currDigitDict'
p50
(lp51
I0
aI1
aI2
assS'oohh'
p52
(dp53
S'digit6successes'
p54
I1
sS'digit1attempts'
p55
I3
sS'digit5successes'
p56
I1
sS'digit9attempts'
p57
I2
sS'digit3attempts'
p58
I3
sS'numCoins'
p59
I14
sS'digit4successes'
p60
I1
sS'currDigitDict'
p61
(lp62
I0
aI1
aI2
aI3
aI4
aI5
aI6
aI7
aI8
aI9
asS'digit7successes'
p63
I1
sS'digit6attempts'
p64
I2
sS'digit8successes'
p65
I1
sS'digit5attempts'
p66
I2
sS'digit8attempts'
p67
I2
sS'digit1successes'
p68
I2
sS'digit2successes'
p69
I2
sS'logins'
p70
I1
sS'digit2attempts'
p71
I3
sS'digit4attempts'
p72
I2
sS'digit9successes'
p73
I1
sS'digit0successes'
p74
I2
sS'digit3successes'
p75
I2
sS'digit7attempts'
p76
I2
sS'digit0attempts'
p77
I3
ssS'ijcioffi'
p78
(dp79
S'digit0attempts'
p80
I3
sS'logins'
p81
I1
sS'digit0successes'
p82
I2
sS'digit1attempts'
p83
I2
sS'digit2attempts'
p84
I2
sS'numCoins'
p85
I1
sS'currDigitDict'
p86
(lp87
I0
aI1
aI2
assS'testman'
p88
(dp89
S'digit2successes'
p90
I1
sS'logins'
p91
I1
sS'digit0successes'
p92
I1
sS'digit3successes'
p93
I1
sS'digit0attempts'
p94
I3
sS'digit3attempts'
p95
I2
sS'digit2attempts'
p96
I3
sS'digit1attempts'
p97
I3
sS'numCoins'
p98
I4
sS'digit1successes'
p99
I1
sS'currDigitDict'
p100
(lp101
I0
aI1
aI2
aI3
aI4
aI5
assS'lovable'
p102
(dp103
S'digit2successes'
p104
I1
sS'digit4attempts'
p105
I2
sS'digit6successes'
p106
I1
sS'digit1attempts'
p107
I3
sS'digit0successes'
p108
I2
sS'digit3successes'
p109
I1
sS'digit5successes'
p110
I1
sS'digit6attempts'
p111
I2
sS'digit9attempts'
p112
I2
sS'logins'
p113
I1
sS'digit3attempts'
p114
I2
sS'digit2attempts'
p115
I3
sS'digit5attempts'
p116
I2
sS'digit7attempts'
p117
I2
sS'numCoins'
p118
I0
sS'digit0attempts'
p119
I3
sS'digit8attempts'
p120
I2
sS'digit1successes'
p121
I2
sS'digit4successes'
p122
I1
sS'currDigitDict'
p123
(lp124
I0
aI1
aI2
aI3
aI4
aI5
aI6
aI7
aI8
aI9
assS'bnksdfl'
p125
(dp126
S'digit2successes'
p127
I1
sS'logins'
p128
I1
sS'digit0successes'
p129
I2
sS'digit3successes'
p130
I1
sS'digit5successes'
p131
I1
sS'digit0attempts'
p132
I3
sS'digit3attempts'
p133
I2
sS'digit2attempts'
p134
I2
sS'digit1attempts'
p135
I3
sS'numCoins'
p136
I11
sS'digit5attempts'
p137
I2
sS'digit1successes'
p138
I2
sS'digit4attempts'
p139
I2
sS'currDigitDict'
p140
(lp141
I0
aI1
aI2
aI3
aI4
aI5
assS'connor '
p142
(dp143
S'digit2successes'
p144
I1
sS'logins'
p145
I1
sS'digit0successes'
p146
I1
sS'digit0attempts'
p147
I2
sS'digit1attempts'
p148
I2
sS'digit2attempts'
p149
I3
sS'numCoins'
p150
I2
sS'digit1successes'
p151
I1
sS'currDigitDict'
p152
(lp153
I0
aI1
aI2
aI3
aI4
aI5
assS'Tina'
p154
(dp155
S'digit2successes'
p156
I1
sS'logins'
p157
I1
sS'digit0successes'
p158
I2
sS'digit3successes'
p159
I1
sS'digit5successes'
p160
I1
sS'digit0attempts'
p161
I3
sS'digit3attempts'
p162
I3
sS'digit2attempts'
p163
I2
sS'digit1attempts'
p164
I2
sS'numCoins'
p165
I5
sS'digit5attempts'
p166
I2
sS'digit1successes'
p167
I1
sS'currDigitDict'
p168
(lp169
I0
aI1
aI2
aI3
aI4
aI5
assS'hallaaaaa'
p170
(dp171
S'digit2successes'
p172
I2
sS'logins'
p173
I1
sS'digit0successes'
p174
I3
sS'digit3successes'
p175
I1
sS'digit4attempts'
p176
I3
sS'digit0attempts'
p177
I6
sS'digit3attempts'
p178
I3
sS'digit2attempts'
p179
I5
sS'digit1attempts'
p180
I5
sS'numCoins'
p181
I3
sS'digit5attempts'
p182
I3
sS'digit1successes'
p183
I3
sS'digit4successes'
p184
I2
sS'currDigitDict'
p185
(lp186
I0
aI1
aI2
aI3
aI4
aI5
assS'Isaac'
p187
(dp188
S'logins'
p189
I2
sS'digit0attempts'
p190
I2
sS'digit1attempts'
p191
I2
sS'numCoins'
p192
I1
sS'digit1successes'
p193
I1
sS'currDigitDict'
p194
(lp195
I0
aI1
aI2
assS'kabbito'
p196
(dp197
S'digit2successes'
p198
I1
sS'logins'
p199
I1
sS'digit0attempts'
p200
I2
sS'digit1attempts'
p201
I2
sS'digit2attempts'
p202
I2
sS'numCoins'
p203
I2
sS'digit1successes'
p204
I1
sS'currDigitDict'
p205
(lp206
I0
aI1
aI2
assS'johnnkk'
p207
(dp208
S'logins'
p209
I1
sS'numCoins'
p210
I0
sS'currDigitDict'
p211
(lp212
I0
aI1
aI2
assS'kevin'
p213
(dp214
S'logins'
p215
I1
sS'numCoins'
p216
I0
sS'currDigitDict'
p217
(lp218
I0
aI1
aI2
assS'Henlo'
p219
(dp220
S'digit2successes'
p221
I1
sS'digit0attempts'
p222
I2
sS'logins'
p223
I1
sS'digit0successes'
p224
I1
sS'digit1attempts'
p225
I2
sS'digit2attempts'
p226
I2
sS'numCoins'
p227
I3
sS'digit1successes'
p228
I1
sS'currDigitDict'
p229
(lp230
I0
aI1
aI2
aI3
aI4
aI5
assS'jose'
p231
(dp232
S'digit6successes'
p233
I2
sS'digit1attempts'
p234
I5
sS'digit5successes'
p235
I3
sS'digit9attempts'
p236
I4
sS'digit3attempts'
p237
I4
sS'numCoins'
p238
I0
sS'digit4successes'
p239
I3
sS'currDigitDict'
p240
(lp241
I0
aI1
aI2
aI3
aI4
aI5
aI6
aI7
aI8
aI9
asS'digit7successes'
p242
I1
sS'digit6attempts'
p243
I4
sS'digit8successes'
p244
I1
sS'digit5attempts'
p245
I4
sS'digit8attempts'
p246
I4
sS'digit1successes'
p247
I3
sS'digit2successes'
p248
I3
sS'logins'
p249
I1
sS'digit2attempts'
p250
I4
sS'digit4attempts'
p251
I4
sS'digit0successes'
p252
I3
sS'digit3successes'
p253
I3
sS'digit7attempts'
p254
I4
sS'digit0attempts'
p255
I5
ssS'Mike'
p256
(dp257
S'logins'
p258
I1
sS'digit0successes'
p259
I1
sS'digit0attempts'
p260
I2
sS'digit1attempts'
p261
I2
sS'numCoins'
p262
I2
sS'digit1successes'
p263
I1
sS'currDigitDict'
p264
(lp265
I0
aI1
aI2
assS'whatup'
p266
(dp267
S'digit6successes'
p268
I1
sS'digit1attempts'
p269
I6
sS'digit5successes'
p270
I2
sS'digit9attempts'
p271
I4
sS'digit3attempts'
p272
I4
sS'numCoins'
p273
I3
sS'digit4successes'
p274
I1
sS'currDigitDict'
p275
(lp276
I0
aI1
aI2
aI3
aI4
aI5
aI6
aI7
aI8
aI9
asS'digit7successes'
p277
I3
sS'digit6attempts'
p278
I4
sS'digit8successes'
p279
I2
sS'digit5attempts'
p280
I4
sS'digit8attempts'
p281
I4
sS'digit1successes'
p282
I4
sS'digit2successes'
p283
I1
sS'logins'
p284
I1
sS'digit2attempts'
p285
I6
sS'digit4attempts'
p286
I4
sS'digit9successes'
p287
I3
sS'digit0successes'
p288
I3
sS'digit3successes'
p289
I2
sS'digit7attempts'
p290
I4
sS'digit0attempts'
p291
I6
ssS'Tester'
p292
(dp293
S'logins'
p294
I1
sS'digit0attempts'
p295
I2
sS'currDigitDict'
p296
(lp297
I0
aI1
aI2
asS'numCoins'
p298
I0
ssS'Vanessa'
p299
(dp300
S'digit6successes'
p301
I1
sS'digit1attempts'
p302
I3
sS'digit5successes'
p303
I1
sS'digit9attempts'
p304
I2
sS'digit3attempts'
p305
I3
sS'numCoins'
p306
I4
sS'digit4successes'
p307
I1
sS'currDigitDict'
p308
(lp309
I0
aI1
aI2
aI3
aI4
aI5
aI6
aI7
aI8
aI9
asS'digit7successes'
p310
I1
sS'digit6attempts'
p311
I2
sS'digit8successes'
p312
I1
sS'digit5attempts'
p313
I2
sS'digit8attempts'
p314
I2
sS'digit1successes'
p315
I2
sS'digit2successes'
p316
I2
sS'logins'
p317
I2
sS'digit2attempts'
p318
I3
sS'digit4attempts'
p319
I2
sS'digit9successes'
p320
I1
sS'digit0successes'
p321
I2
sS'digit3successes'
p322
I2
sS'digit7attempts'
p323
I2
sS'digit0attempts'
p324
I3
ssS'javathehut'
p325
(dp326
S'digit7successes'
p327
I1
sS'digit2successes'
p328
I2
sS'digit6successes'
p329
I2
sS'digit1attempts'
p330
I4
sS'digit0successes'
p331
I1
sS'digit3successes'
p332
I2
sS'digit5successes'
p333
I2
sS'digit6attempts'
p334
I3
sS'digit9attempts'
p335
I3
sS'logins'
p336
I1
sS'digit3attempts'
p337
I3
sS'digit2attempts'
p338
I3
sS'digit5attempts'
p339
I3
sS'digit7attempts'
p340
I3
sS'numCoins'
p341
I0
sS'digit0attempts'
p342
I4
sS'digit8attempts'
p343
I3
sS'digit1successes'
p344
I2
sS'digit4successes'
p345
I2
sS'digit4attempts'
p346
I3
sS'currDigitDict'
p347
(lp348
I0
aI1
aI2
aI3
aI4
aI5
aI6
aI7
aI8
aI9
assS'Andrew'
p349
(dp350
S'logins'
p351
I1
sS'digit0attempts'
p352
I2
sS'numCoins'
p353
I1
sS'currDigitDict'
p354
(lp355
I0
aI1
aI2
asS'digit0successes'
p356
I1
ssS'brandon'
p357
(dp358
S'logins'
p359
I1
sS'digit0successes'
p360
I1
sS'digit0attempts'
p361
I2
sS'digit1attempts'
p362
I2
sS'digit2attempts'
p363
I2
sS'numCoins'
p364
I1
sS'digit1successes'
p365
I1
sS'currDigitDict'
p366
(lp367
I0
aI1
aI2
assS'sdlfjdslkfjsdlk'
p368
(dp369
S'digit7successes'
p370
I1
sS'digit2successes'
p371
I4
sS'digit6successes'
p372
I1
sS'logins'
p373
I1
sS'digit0successes'
p374
I3
sS'digit3successes'
p375
I4
sS'digit3attempts'
p376
I5
sS'digit5successes'
p377
I2
sS'digit4successes'
p378
I1
sS'digit0attempts'
p379
I5
sS'digit1attempts'
p380
I5
sS'digit2attempts'
p381
I5
sS'digit5attempts'
p382
I5
sS'digit7attempts'
p383
I2
sS'numCoins'
p384
I8
sS'digit8attempts'
p385
I2
sS'digit1successes'
p386
I4
sS'digit6attempts'
p387
I2
sS'digit4attempts'
p388
I5
sS'currDigitDict'
p389
(lp390
I0
aI1
aI2
aI3
aI4
aI5
aI6
aI7
aI8
aI9
assS'Joe'
p391
(dp392
S'digit1attempts'
p393
I2
sS'digit5successes'
p394
I1
sS'digit9attempts'
p395
I2
sS'digit3attempts'
p396
I2
sS'numCoins'
p397
I7
sS'digit4successes'
p398
I1
sS'currDigitDict'
p399
(lp400
I0
aI1
aI2
aI3
aI4
aI5
aI6
aI7
aI8
aI9
asS'digit7successes'
p401
I1
sS'digit6attempts'
p402
I2
sS'digit8successes'
p403
I1
sS'digit5attempts'
p404
I2
sS'digit8attempts'
p405
I2
sS'digit1successes'
p406
I1
sS'digit2successes'
p407
I1
sS'logins'
p408
I1
sS'digit2attempts'
p409
I2
sS'digit4attempts'
p410
I2
sS'digit9successes'
p411
I1
sS'digit0successes'
p412
I1
sS'digit3successes'
p413
I1
sS'digit7attempts'
p414
I2
sS'digit0attempts'
p415
I3
ssS'tina'
p416
(dp417
S'logins'
p418
I1
sS'numCoins'
p419
I0
sS'currDigitDict'
p420
(lp421
I0
aI1
aI2
assS'kaboobap'
p422
(dp423
S'digit2successes'
p424
I2
sS'digit4attempts'
p425
I2
sS'digit6successes'
p426
I1
sS'logins'
p427
I1
sS'digit0successes'
p428
I2
sS'digit3successes'
p429
I1
sS'digit5successes'
p430
I1
sS'digit6attempts'
p431
I2
sS'digit0attempts'
p432
I4
sS'digit3attempts'
p433
I2
sS'digit2attempts'
p434
I3
sS'digit1attempts'
p435
I2
sS'numCoins'
p436
I9
sS'digit5attempts'
p437
I2
sS'digit1successes'
p438
I1
sS'digit4successes'
p439
I1
sS'currDigitDict'
p440
(lp441
I0
aI1
aI2
aI3
aI4
aI5
aI6
aI7
aI8
aI9
assS'test'
p442
(dp443
S'digit2successes'
p444
I1
sS'logins'
p445
I1
sS'digit0successes'
p446
I1
sS'digit3successes'
p447
I1
sS'digit0attempts'
p448
I2
sS'digit3attempts'
p449
I2
sS'digit2attempts'
p450
I2
sS'digit1attempts'
p451
I2
sS'numCoins'
p452
I4
sS'digit1successes'
p453
I1
sS'currDigitDict'
p454
(lp455
I0
aI1
aI2
aI3
aI4
aI5
assS'tesrboy'
p456
(dp457
S'logins'
p458
I1
sS'digit0attempts'
p459
I2
sS'numCoins'
p460
I1
sS'currDigitDict'
p461
(lp462
I0
aI1
aI2
asS'digit0successes'
p463
I1
ssS'okokok'
p464
(dp465
S'digit2successes'
p466
I1
sS'digit0attempts'
p467
I2
sS'logins'
p468
I1
sS'digit0successes'
p469
I1
sS'digit1attempts'
p470
I2
sS'digit2attempts'
p471
I2
sS'numCoins'
p472
I3
sS'digit1successes'
p473
I1
sS'currDigitDict'
p474
(lp475
I0
aI1
aI2
aI3
aI4
aI5
assS'jokaman'
p476
(dp477
S'digit2successes'
p478
I2
sS'digit6successes'
p479
I1
sS'digit1attempts'
p480
I3
sS'digit0successes'
p481
I1
sS'digit4successes'
p482
I2
sS'digit3successes'
p483
I1
sS'digit5successes'
p484
I1
sS'digit6attempts'
p485
I2
sS'digit9attempts'
p486
I2
sS'digit8successes'
p487
I1
sS'digit3attempts'
p488
I3
sS'digit2attempts'
p489
I3
sS'digit5attempts'
p490
I2
sS'digit7attempts'
p491
I2
sS'numCoins'
p492
I1
sS'digit0attempts'
p493
I3
sS'digit8attempts'
p494
I2
sS'digit1successes'
p495
I1
sS'logins'
p496
I1
sS'digit4attempts'
p497
I3
sS'currDigitDict'
p498
(lp499
I0
aI1
aI2
aI3
aI4
aI5
aI6
aI7
aI8
aI9
assS'kevinyang'
p500
(dp501
S'logins'
p502
I1
sS'digit0successes'
p503
I1
sS'digit0attempts'
p504
I3
sS'digit1attempts'
p505
I2
sS'digit2attempts'
p506
I2
sS'numCoins'
p507
I1
sS'digit1successes'
p508
I1
sS'currDigitDict'
p509
(lp510
I0
aI1
aI2
assS'habbas'
p511
(dp512
S'digit2successes'
p513
I1
sS'logins'
p514
I1
sS'digit0successes'
p515
I1
sS'digit3successes'
p516
I1
sS'digit0attempts'
p517
I2
sS'digit3attempts'
p518
I2
sS'digit2attempts'
p519
I2
sS'digit1attempts'
p520
I2
sS'numCoins'
p521
I4
sS'digit1successes'
p522
I1
sS'currDigitDict'
p523
(lp524
I0
aI1
aI2
aI3
aI4
aI5
assS'norman'
p525
(dp526
S'digit2successes'
p527
I1
sS'logins'
p528
I1
sS'digit0successes'
p529
I1
sS'digit3successes'
p530
I1
sS'digit0attempts'
p531
I2
sS'digit3attempts'
p532
I2
sS'digit2attempts'
p533
I2
sS'digit1attempts'
p534
I2
sS'numCoins'
p535
I4
sS'digit1successes'
p536
I1
sS'currDigitDict'
p537
(lp538
I0
aI1
aI2
aI3
aI4
aI5
assS'yaha'
p539
(dp540
S'logins'
p541
I1
sS'numCoins'
p542
I0
sS'currDigitDict'
p543
(lp544
I0
aI1
aI2
assS'newUserBaddd'
p545
(dp546
S'digit6successes'
p547
I3
sS'digit1attempts'
p548
I7
sS'digit5successes'
p549
I5
sS'digit9attempts'
p550
I5
sS'digit3attempts'
p551
I7
sS'numCoins'
p552
I1
sS'digit4successes'
p553
I4
sS'currDigitDict'
p554
(lp555
I0
aI1
aI2
aI3
aI4
aI5
aI6
aI7
aI8
aI9
asS'digit7successes'
p556
I1
sS'digit6attempts'
p557
I7
sS'digit8successes'
p558
I3
sS'digit5attempts'
p559
I7
sS'digit8attempts'
p560
I4
sS'digit1successes'
p561
I4
sS'digit2successes'
p562
I4
sS'logins'
p563
I3
sS'digit2attempts'
p564
I7
sS'digit4attempts'
p565
I7
sS'digit9successes'
p566
I4
sS'digit0successes'
p567
I4
sS'digit3successes'
p568
I4
sS'digit7attempts'
p569
I7
sS'digit0attempts'
p570
I8
ssS'asdfasdfds'
p571
(dp572
S'logins'
p573
I1
sS'digit0attempts'
p574
I2
sS'currDigitDict'
p575
(lp576
I0
aI1
aI2
asS'numCoins'
p577
I1
sS'digit0successes'
p578
I1
ssS'Connor'
p579
(dp580
S'digit6successes'
p581
I2
sS'digit1attempts'
p582
I5
sS'digit5successes'
p583
I2
sS'digit9attempts'
p584
I3
sS'digit3attempts'
p585
I4
sS'numCoins'
p586
I7
sS'digit4successes'
p587
I2
sS'currDigitDict'
p588
(lp589
I0
aI1
aI2
aI3
aI4
aI5
aI6
aI7
aI8
aI9
asS'digit7successes'
p590
I1
sS'digit6attempts'
p591
I3
sS'digit8successes'
p592
I2
sS'digit5attempts'
p593
I3
sS'digit8attempts'
p594
I3
sS'digit1successes'
p595
I3
sS'digit2successes'
p596
I3
sS'logins'
p597
I3
sS'digit2attempts'
p598
I4
sS'digit4attempts'
p599
I3
sS'digit9successes'
p600
I2
sS'digit0successes'
p601
I3
sS'digit3successes'
p602
I3
sS'digit7attempts'
p603
I3
sS'digit0attempts'
p604
I5
ssS'plzzzz'
p605
(dp606
S'digit2successes'
p607
I1
sS'logins'
p608
I1
sS'digit0successes'
p609
I1
sS'digit3successes'
p610
I1
sS'digit5successes'
p611
I1
sS'digit4attempts'
p612
I2
sS'digit0attempts'
p613
I2
sS'digit3attempts'
p614
I2
sS'digit2attempts'
p615
I2
sS'digit1attempts'
p616
I2
sS'numCoins'
p617
I11
sS'digit5attempts'
p618
I2
sS'digit1successes'
p619
I1
sS'digit4successes'
p620
I1
sS'currDigitDict'
p621
(lp622
I0
aI1
aI2
aI3
aI4
aI5
aI6
aI7
aI8
aI9
assS'joeeey'
p623
(dp624
S'logins'
p625
I1
sS'currDigitDict'
p626
(lp627
I0
aI1
aI2
asS'numCoins'
p628
I0
ssS'bahooga'
p629
(dp630
S'digit2successes'
p631
I2
sS'logins'
p632
I1
sS'digit0successes'
p633
I2
sS'digit3successes'
p634
I2
sS'digit4successes'
p635
I1
sS'digit0attempts'
p636
I3
sS'digit3attempts'
p637
I3
sS'digit2attempts'
p638
I3
sS'digit1attempts'
p639
I3
sS'numCoins'
p640
I18
sS'digit5attempts'
p641
I2
sS'digit1successes'
p642
I2
sS'digit4attempts'
p643
I2
sS'currDigitDict'
p644
(lp645
I0
aI1
aI2
aI3
aI4
aI5
assS'jack'
p646
(dp647
S'digit2successes'
p648
I2
sS'logins'
p649
I1
sS'digit0successes'
p650
I2
sS'digit3successes'
p651
I1
sS'digit0attempts'
p652
I3
sS'digit3attempts'
p653
I2
sS'digit2attempts'
p654
I3
sS'digit1attempts'
p655
I3
sS'numCoins'
p656
I1
sS'digit5attempts'
p657
I2
sS'digit1successes'
p658
I1
sS'digit4attempts'
p659
I2
sS'currDigitDict'
p660
(lp661
I0
aI1
aI2
aI3
aI4
aI5
assS'habba!'
p662
(dp663
S'digit2successes'
p664
I1
sS'logins'
p665
I1
sS'digit0attempts'
p666
I2
sS'digit1attempts'
p667
I2
sS'digit2attempts'
p668
I2
sS'numCoins'
p669
I1
sS'currDigitDict'
p670
(lp671
I0
aI1
aI2
assS'connor'
p672
(dp673
S'digit2successes'
p674
I5
sS'digit4attempts'
p675
I5
sS'logins'
p676
I14
sS'digit0successes'
p677
I4
sS'digit3successes'
p678
I4
sS'digit5successes'
p679
I3
sS'digit6attempts'
p680
I2
sS'digit0attempts'
p681
I9
sS'digit3attempts'
p682
I6
sS'digit2attempts'
p683
I7
sS'digit1attempts'
p684
I7
sS'numCoins'
p685
I1
sS'digit5attempts'
p686
I4
sS'digit1successes'
p687
I5
sS'digit4successes'
p688
I3
sS'currDigitDict'
p689
(lp690
I0
aI1
aI2
aI3
aI4
aI5
aI6
aI7
aI8
aI9
assS'anotha1'
p691
(dp692
S'digit2successes'
p693
I2
sS'logins'
p694
I1
sS'digit0successes'
p695
I3
sS'digit3successes'
p696
I1
sS'digit0attempts'
p697
I4
sS'digit3attempts'
p698
I3
sS'digit2attempts'
p699
I3
sS'digit1attempts'
p700
I4
sS'numCoins'
p701
I2
sS'digit5attempts'
p702
I3
sS'digit1successes'
p703
I3
sS'digit4attempts'
p704
I3
sS'currDigitDict'
p705
(lp706
I0
aI1
aI2
aI3
aI4
aI5
assS'jabaaaka'
p707
(dp708
S'digit9successes'
p709
I1
sS'digit2successes'
p710
I1
sS'digit1attempts'
p711
I2
sS'digit0successes'
p712
I2
sS'digit4successes'
p713
I1
sS'digit3successes'
p714
I1
sS'digit5successes'
p715
I1
sS'digit6attempts'
p716
I2
sS'digit9attempts'
p717
I2
sS'digit0attempts'
p718
I3
sS'digit3attempts'
p719
I2
sS'digit2attempts'
p720
I2
sS'digit5attempts'
p721
I2
sS'digit7attempts'
p722
I2
sS'numCoins'
p723
I2
sS'digit8attempts'
p724
I2
sS'digit1successes'
p725
I1
sS'logins'
p726
I1
sS'digit4attempts'
p727
I2
sS'currDigitDict'
p728
(lp729
I0
aI1
aI2
aI3
aI4
aI5
aI6
aI7
aI8
aI9
assS'tean the bean'
p730
(dp731
S'digit6successes'
p732
I1
sS'digit1attempts'
p733
I6
sS'digit5successes'
p734
I3
sS'digit9attempts'
p735
I4
sS'digit3attempts'
p736
I5
sS'numCoins'
p737
I4
sS'digit4successes'
p738
I4
sS'currDigitDict'
p739
(lp740
I0
aI1
aI2
aI3
aI4
aI5
aI6
aI7
aI8
aI9
asS'digit7successes'
p741
I1
sS'digit6attempts'
p742
I4
sS'digit8successes'
p743
I1
sS'digit5attempts'
p744
I4
sS'digit8attempts'
p745
I4
sS'digit1successes'
p746
I3
sS'digit2successes'
p747
I3
sS'logins'
p748
I1
sS'digit2attempts'
p749
I6
sS'digit4attempts'
p750
I5
sS'digit9successes'
p751
I2
sS'digit0successes'
p752
I2
sS'digit3successes'
p753
I4
sS'digit7attempts'
p754
I4
sS'digit0attempts'
p755
I6
ssS'jackkiiee'
p756
(dp757
S'digit2successes'
p758
I1
sS'digit0attempts'
p759
I2
sS'logins'
p760
I1
sS'digit0successes'
p761
I1
sS'digit1attempts'
p762
I2
sS'digit2attempts'
p763
I2
sS'numCoins'
p764
I1
sS'currDigitDict'
p765
(lp766
I0
aI1
aI2
assS'gooba'
p767
(dp768
S'digit2successes'
p769
I1
sS'digit0attempts'
p770
I2
sS'logins'
p771
I1
sS'digit0successes'
p772
I1
sS'digit1attempts'
p773
I2
sS'digit2attempts'
p774
I2
sS'numCoins'
p775
I3
sS'digit1successes'
p776
I1
sS'currDigitDict'
p777
(lp778
I0
aI1
aI2
aI3
aI4
aI5
assS'kobab'
p779
(dp780
S'logins'
p781
I1
sS'currDigitDict'
p782
(lp783
I0
aI1
aI2
asS'numCoins'
p784
I0
ssS'Hallaw'
p785
(dp786
S'digit2successes'
p787
I1
sS'logins'
p788
I1
sS'digit0successes'
p789
I1
sS'digit3successes'
p790
I1
sS'digit5successes'
p791
I1
sS'digit4successes'
p792
I1
sS'digit0attempts'
p793
I2
sS'digit3attempts'
p794
I2
sS'digit2attempts'
p795
I2
sS'digit1attempts'
p796
I2
sS'numCoins'
p797
I6
sS'digit5attempts'
p798
I2
sS'digit1successes'
p799
I1
sS'digit4attempts'
p800
I2
sS'currDigitDict'
p801
(lp802
I0
aI1
aI2
aI3
aI4
aI5
aI6
aI7
aI8
aI9
assS'Another tester'
p803
(dp804
S'digit2successes'
p805
I1
sS'logins'
p806
I1
sS'digit0successes'
p807
I1
sS'digit0attempts'
p808
I2
sS'digit1attempts'
p809
I2
sS'digit2attempts'
p810
I2
sS'numCoins'
p811
I1
sS'currDigitDict'
p812
(lp813
I0
aI1
aI2
assS'Isaac C'
p814
(dp815
S'logins'
p816
I1
sS'currDigitDict'
p817
(lp818
I0
aI1
aI2
asS'numCoins'
p819
I0
ssS'vanessatesstplz'
p820
(dp821
S'digit2successes'
p822
I1
sS'logins'
p823
I1
sS'digit0successes'
p824
I1
sS'digit0attempts'
p825
I2
sS'digit1attempts'
p826
I2
sS'digit2attempts'
p827
I2
sS'numCoins'
p828
I3
sS'digit1successes'
p829
I1
sS'currDigitDict'
p830
(lp831
I0
aI1
aI2
aI3
aI4
aI5
ass.