(dp0
S'Turkey'
p1
(dp2
S'logins'
p3
I1
sS'digit0attempts'
p4
I2
sS'digit1attempts'
p5
I2
sS'digit2attempts'
p6
I2
sS'numCoins'
p7
I0
sS'currDigitDict'
p8
(lp9
I0
aI1
aI2
assS''
p10
(dp11
S'logins'
p12
I1
sS'numCoins'
p13
I0
sS'currDigitDict'
p14
(lp15
I0
aI1
aI2
assS'Jackson'
p16
(dp17
S'digit2successes'
p18
I1
sS'logins'
p19
I1
sS'digit0successes'
p20
I1
sS'digit3successes'
p21
I1
sS'digit0attempts'
p22
I2
sS'digit3attempts'
p23
I2
sS'digit2attempts'
p24
I2
sS'digit1attempts'
p25
I2
sS'numCoins'
p26
I4
sS'digit1successes'
p27
I1
sS'currDigitDict'
p28
(lp29
I0
aI1
aI2
aI3
aI4
aI5
assS'Testuser'
p30
(dp31
S'digit0attempts'
p32
I2
sS'logins'
p33
I1
sS'digit0successes'
p34
I1
sS'digit1attempts'
p35
I2
sS'numCoins'
p36
I2
sS'digit1successes'
p37
I1
sS'currDigitDict'
p38
(lp39
I0
aI1
aI2
assS'oohh'
p40
(dp41
S'digit6successes'
p42
I1
sS'digit1attempts'
p43
I3
sS'digit5successes'
p44
I1
sS'digit9attempts'
p45
I2
sS'digit3attempts'
p46
I3
sS'numCoins'
p47
I14
sS'digit4successes'
p48
I1
sS'currDigitDict'
p49
(lp50
I0
aI1
aI2
aI3
aI4
aI5
aI6
aI7
aI8
aI9
asS'digit7successes'
p51
I1
sS'digit6attempts'
p52
I2
sS'digit8successes'
p53
I1
sS'digit5attempts'
p54
I2
sS'digit8attempts'
p55
I2
sS'digit1successes'
p56
I2
sS'digit2successes'
p57
I2
sS'logins'
p58
I1
sS'digit2attempts'
p59
I3
sS'digit4attempts'
p60
I2
sS'digit9successes'
p61
I1
sS'digit0successes'
p62
I2
sS'digit3successes'
p63
I2
sS'digit7attempts'
p64
I2
sS'digit0attempts'
p65
I3
ssS'lovable'
p66
(dp67
S'digit2successes'
p68
I1
sS'digit4attempts'
p69
I2
sS'digit6successes'
p70
I1
sS'digit1attempts'
p71
I3
sS'digit0successes'
p72
I2
sS'digit3successes'
p73
I1
sS'digit5successes'
p74
I1
sS'digit6attempts'
p75
I2
sS'digit9attempts'
p76
I2
sS'logins'
p77
I1
sS'digit3attempts'
p78
I2
sS'digit2attempts'
p79
I3
sS'digit5attempts'
p80
I2
sS'digit7attempts'
p81
I2
sS'numCoins'
p82
I0
sS'digit0attempts'
p83
I3
sS'digit8attempts'
p84
I2
sS'digit1successes'
p85
I2
sS'digit4successes'
p86
I1
sS'currDigitDict'
p87
(lp88
I0
aI1
aI2
aI3
aI4
aI5
aI6
aI7
aI8
aI9
assS'Tina'
p89
(dp90
S'digit2successes'
p91
I1
sS'logins'
p92
I1
sS'digit0successes'
p93
I2
sS'digit3successes'
p94
I1
sS'digit5successes'
p95
I1
sS'digit0attempts'
p96
I3
sS'digit3attempts'
p97
I3
sS'digit2attempts'
p98
I2
sS'digit1attempts'
p99
I2
sS'numCoins'
p100
I5
sS'digit5attempts'
p101
I2
sS'digit1successes'
p102
I1
sS'currDigitDict'
p103
(lp104
I0
aI1
aI2
aI3
aI4
aI5
assS'kevin'
p105
(dp106
S'logins'
p107
I1
sS'numCoins'
p108
I0
sS'currDigitDict'
p109
(lp110
I0
aI1
aI2
assS'Henlo'
p111
(dp112
S'digit2successes'
p113
I1
sS'digit0attempts'
p114
I2
sS'logins'
p115
I1
sS'digit0successes'
p116
I1
sS'digit1attempts'
p117
I2
sS'digit2attempts'
p118
I2
sS'numCoins'
p119
I3
sS'digit1successes'
p120
I1
sS'currDigitDict'
p121
(lp122
I0
aI1
aI2
aI3
aI4
aI5
assS'jose'
p123
(dp124
S'digit6successes'
p125
I2
sS'digit1attempts'
p126
I5
sS'digit5successes'
p127
I3
sS'digit9attempts'
p128
I4
sS'digit3attempts'
p129
I4
sS'numCoins'
p130
I0
sS'digit4successes'
p131
I3
sS'currDigitDict'
p132
(lp133
I0
aI1
aI2
aI3
aI4
aI5
aI6
aI7
aI8
aI9
asS'digit7successes'
p134
I1
sS'digit6attempts'
p135
I4
sS'digit8successes'
p136
I1
sS'digit5attempts'
p137
I4
sS'digit8attempts'
p138
I4
sS'digit1successes'
p139
I3
sS'digit2successes'
p140
I3
sS'logins'
p141
I1
sS'digit2attempts'
p142
I4
sS'digit4attempts'
p143
I4
sS'digit0successes'
p144
I3
sS'digit3successes'
p145
I3
sS'digit7attempts'
p146
I4
sS'digit0attempts'
p147
I5
ssS'Mike'
p148
(dp149
S'logins'
p150
I1
sS'digit0successes'
p151
I1
sS'digit0attempts'
p152
I2
sS'digit1attempts'
p153
I2
sS'numCoins'
p154
I2
sS'digit1successes'
p155
I1
sS'currDigitDict'
p156
(lp157
I0
aI1
aI2
assS'Tester'
p158
(dp159
S'logins'
p160
I1
sS'digit0attempts'
p161
I2
sS'currDigitDict'
p162
(lp163
I0
aI1
aI2
asS'numCoins'
p164
I0
ssS'Vanessa'
p165
(dp166
S'digit6successes'
p167
I1
sS'digit1attempts'
p168
I3
sS'digit5successes'
p169
I1
sS'digit9attempts'
p170
I2
sS'digit3attempts'
p171
I3
sS'numCoins'
p172
I4
sS'digit4successes'
p173
I1
sS'currDigitDict'
p174
(lp175
I0
aI1
aI2
aI3
aI4
aI5
aI6
aI7
aI8
aI9
asS'digit7successes'
p176
I1
sS'digit6attempts'
p177
I2
sS'digit8successes'
p178
I1
sS'digit5attempts'
p179
I2
sS'digit8attempts'
p180
I2
sS'digit1successes'
p181
I2
sS'digit2successes'
p182
I2
sS'logins'
p183
I2
sS'digit2attempts'
p184
I3
sS'digit4attempts'
p185
I2
sS'digit9successes'
p186
I1
sS'digit0successes'
p187
I2
sS'digit3successes'
p188
I2
sS'digit7attempts'
p189
I2
sS'digit0attempts'
p190
I3
ssS'javathehut'
p191
(dp192
S'digit7successes'
p193
I1
sS'digit2successes'
p194
I2
sS'digit6successes'
p195
I2
sS'digit1attempts'
p196
I4
sS'digit0successes'
p197
I1
sS'digit3successes'
p198
I2
sS'digit5successes'
p199
I2
sS'digit6attempts'
p200
I3
sS'digit9attempts'
p201
I3
sS'logins'
p202
I1
sS'digit3attempts'
p203
I3
sS'digit2attempts'
p204
I3
sS'digit5attempts'
p205
I3
sS'digit7attempts'
p206
I3
sS'numCoins'
p207
I0
sS'digit0attempts'
p208
I4
sS'digit8attempts'
p209
I3
sS'digit1successes'
p210
I2
sS'digit4successes'
p211
I2
sS'digit4attempts'
p212
I3
sS'currDigitDict'
p213
(lp214
I0
aI1
aI2
aI3
aI4
aI5
aI6
aI7
aI8
aI9
assS'Andrew'
p215
(dp216
S'logins'
p217
I1
sS'digit0attempts'
p218
I2
sS'numCoins'
p219
I1
sS'currDigitDict'
p220
(lp221
I0
aI1
aI2
asS'digit0successes'
p222
I1
ssS'brandon'
p223
(dp224
S'logins'
p225
I1
sS'digit0successes'
p226
I1
sS'digit0attempts'
p227
I2
sS'digit1attempts'
p228
I2
sS'digit2attempts'
p229
I2
sS'numCoins'
p230
I1
sS'digit1successes'
p231
I1
sS'currDigitDict'
p232
(lp233
I0
aI1
aI2
assS'Joe'
p234
(dp235
S'digit1attempts'
p236
I2
sS'digit5successes'
p237
I1
sS'digit9attempts'
p238
I2
sS'digit3attempts'
p239
I2
sS'numCoins'
p240
I7
sS'digit4successes'
p241
I1
sS'currDigitDict'
p242
(lp243
I0
aI1
aI2
aI3
aI4
aI5
aI6
aI7
aI8
aI9
asS'digit7successes'
p244
I1
sS'digit6attempts'
p245
I2
sS'digit8successes'
p246
I1
sS'digit5attempts'
p247
I2
sS'digit8attempts'
p248
I2
sS'digit1successes'
p249
I1
sS'digit2successes'
p250
I1
sS'logins'
p251
I1
sS'digit2attempts'
p252
I2
sS'digit4attempts'
p253
I2
sS'digit9successes'
p254
I1
sS'digit0successes'
p255
I1
sS'digit3successes'
p256
I1
sS'digit7attempts'
p257
I2
sS'digit0attempts'
p258
I3
ssS'tina'
p259
(dp260
S'logins'
p261
I1
sS'numCoins'
p262
I0
sS'currDigitDict'
p263
(lp264
I0
aI1
aI2
assS'Connor'
p265
(dp266
S'digit6successes'
p267
I2
sS'digit1attempts'
p268
I5
sS'digit5successes'
p269
I2
sS'digit9attempts'
p270
I3
sS'digit3attempts'
p271
I4
sS'numCoins'
p272
I7
sS'digit4successes'
p273
I2
sS'currDigitDict'
p274
(lp275
I0
aI1
aI2
aI3
aI4
aI5
aI6
aI7
aI8
aI9
asS'digit7successes'
p276
I1
sS'digit6attempts'
p277
I3
sS'digit8successes'
p278
I2
sS'digit5attempts'
p279
I3
sS'digit8attempts'
p280
I3
sS'digit1successes'
p281
I3
sS'digit2successes'
p282
I3
sS'logins'
p283
I3
sS'digit2attempts'
p284
I4
sS'digit4attempts'
p285
I3
sS'digit9successes'
p286
I2
sS'digit0successes'
p287
I3
sS'digit3successes'
p288
I3
sS'digit7attempts'
p289
I3
sS'digit0attempts'
p290
I5
ssS'okokok'
p291
(dp292
S'digit2successes'
p293
I1
sS'digit0attempts'
p294
I2
sS'logins'
p295
I1
sS'digit0successes'
p296
I1
sS'digit1attempts'
p297
I2
sS'digit2attempts'
p298
I2
sS'numCoins'
p299
I3
sS'digit1successes'
p300
I1
sS'currDigitDict'
p301
(lp302
I0
aI1
aI2
aI3
aI4
aI5
assS'norman'
p303
(dp304
S'digit2successes'
p305
I1
sS'logins'
p306
I1
sS'digit0successes'
p307
I1
sS'digit3successes'
p308
I1
sS'digit0attempts'
p309
I2
sS'digit3attempts'
p310
I2
sS'digit2attempts'
p311
I2
sS'digit1attempts'
p312
I2
sS'numCoins'
p313
I4
sS'digit1successes'
p314
I1
sS'currDigitDict'
p315
(lp316
I0
aI1
aI2
aI3
aI4
aI5
assS'yaha'
p317
(dp318
S'logins'
p319
I1
sS'numCoins'
p320
I0
sS'currDigitDict'
p321
(lp322
I0
aI1
aI2
assS'newUserBaddd'
p323
(dp324
S'digit6successes'
p325
I3
sS'digit1attempts'
p326
I7
sS'digit5successes'
p327
I5
sS'digit9attempts'
p328
I5
sS'digit3attempts'
p329
I7
sS'numCoins'
p330
I1
sS'digit4successes'
p331
I4
sS'currDigitDict'
p332
(lp333
I0
aI1
aI2
aI3
aI4
aI5
aI6
aI7
aI8
aI9
asS'digit7successes'
p334
I1
sS'digit6attempts'
p335
I7
sS'digit8successes'
p336
I3
sS'digit5attempts'
p337
I7
sS'digit8attempts'
p338
I4
sS'digit1successes'
p339
I4
sS'digit2successes'
p340
I4
sS'logins'
p341
I3
sS'digit2attempts'
p342
I7
sS'digit4attempts'
p343
I7
sS'digit9successes'
p344
I4
sS'digit0successes'
p345
I4
sS'digit3successes'
p346
I4
sS'digit7attempts'
p347
I7
sS'digit0attempts'
p348
I8
ssS'joeeey'
p349
(dp350
S'logins'
p351
I1
sS'currDigitDict'
p352
(lp353
I0
aI1
aI2
asS'numCoins'
p354
I0
ssS'jack'
p355
(dp356
S'digit2successes'
p357
I2
sS'logins'
p358
I1
sS'digit0successes'
p359
I2
sS'digit3successes'
p360
I1
sS'digit0attempts'
p361
I3
sS'digit3attempts'
p362
I2
sS'digit2attempts'
p363
I3
sS'digit1attempts'
p364
I3
sS'numCoins'
p365
I1
sS'digit5attempts'
p366
I2
sS'digit1successes'
p367
I1
sS'digit4attempts'
p368
I2
sS'currDigitDict'
p369
(lp370
I0
aI1
aI2
aI3
aI4
aI5
assS'connor'
p371
(dp372
S'digit2successes'
p373
I4
sS'logins'
p374
I11
sS'digit0successes'
p375
I3
sS'digit3successes'
p376
I3
sS'digit5successes'
p377
I2
sS'digit4attempts'
p378
I4
sS'digit0attempts'
p379
I7
sS'digit3attempts'
p380
I5
sS'digit2attempts'
p381
I6
sS'digit1attempts'
p382
I6
sS'numCoins'
p383
I0
sS'digit5attempts'
p384
I3
sS'digit1successes'
p385
I4
sS'digit4successes'
p386
I2
sS'currDigitDict'
p387
(lp388
I0
aI1
aI2
aI3
aI4
aI5
aI6
aI7
aI8
aI9
assS'habba!'
p389
(dp390
S'digit2successes'
p391
I1
sS'logins'
p392
I1
sS'digit0attempts'
p393
I2
sS'digit1attempts'
p394
I2
sS'digit2attempts'
p395
I2
sS'numCoins'
p396
I1
sS'currDigitDict'
p397
(lp398
I0
aI1
aI2
assS'kobab'
p399
(dp400
S'logins'
p401
I1
sS'currDigitDict'
p402
(lp403
I0
aI1
aI2
asS'numCoins'
p404
I0
ssS'Hallaw'
p405
(dp406
S'digit2successes'
p407
I1
sS'logins'
p408
I1
sS'digit0successes'
p409
I1
sS'digit3successes'
p410
I1
sS'digit5successes'
p411
I1
sS'digit4successes'
p412
I1
sS'digit0attempts'
p413
I2
sS'digit3attempts'
p414
I2
sS'digit2attempts'
p415
I2
sS'digit1attempts'
p416
I2
sS'numCoins'
p417
I6
sS'digit5attempts'
p418
I2
sS'digit1successes'
p419
I1
sS'digit4attempts'
p420
I2
sS'currDigitDict'
p421
(lp422
I0
aI1
aI2
aI3
aI4
aI5
aI6
aI7
aI8
aI9
assS'Another tester'
p423
(dp424
S'digit2successes'
p425
I1
sS'logins'
p426
I1
sS'digit0successes'
p427
I1
sS'digit0attempts'
p428
I2
sS'digit1attempts'
p429
I2
sS'digit2attempts'
p430
I2
sS'numCoins'
p431
I1
sS'currDigitDict'
p432
(lp433
I0
aI1
aI2
ass.