(dp0
S''
p1
(dp2
S'logins'
p3
I2
sS'numCoins'
p4
I0
sS'currDigitDict'
p5
(lp6
I0
aI1
aI2
assS'dssdvds'
p7
(dp8
S'logins'
p9
I1
sS'digit0attempts'
p10
I2
sS'currDigitDict'
p11
(lp12
I0
aI1
aI2
asS'numCoins'
p13
I1
sS'digit0successes'
p14
I1
ssS'Testuser'
p15
(dp16
S'digit0attempts'
p17
I2
sS'logins'
p18
I1
sS'digit0successes'
p19
I1
sS'digit1attempts'
p20
I2
sS'numCoins'
p21
I2
sS'digit1successes'
p22
I1
sS'currDigitDict'
p23
(lp24
I0
aI1
aI2
assS'ijcioffi'
p25
(dp26
S'digit0attempts'
p27
I3
sS'logins'
p28
I1
sS'digit0successes'
p29
I2
sS'digit1attempts'
p30
I2
sS'digit2attempts'
p31
I2
sS'numCoins'
p32
I1
sS'currDigitDict'
p33
(lp34
I0
aI1
aI2
assS'habbas'
p35
(dp36
S'digit2successes'
p37
I1
sS'logins'
p38
I1
sS'digit0successes'
p39
I1
sS'digit3successes'
p40
I1
sS'digit0attempts'
p41
I2
sS'digit3attempts'
p42
I2
sS'digit2attempts'
p43
I2
sS'digit1attempts'
p44
I2
sS'numCoins'
p45
I4
sS'digit1successes'
p46
I1
sS'currDigitDict'
p47
(lp48
I0
aI1
aI2
aI3
aI4
aI5
assS'sdfdsfsd'
p49
(dp50
S'digit6successes'
p51
I2
sS'digit1attempts'
p52
I4
sS'digit5successes'
p53
I2
sS'digit9attempts'
p54
I3
sS'digit3attempts'
p55
I3
sS'numCoins'
p56
I36
sS'digit4successes'
p57
I2
sS'currDigitDict'
p58
(lp59
I0
aI1
aI2
aI3
aI4
aI5
aI6
aI7
aI8
aI9
asS'digit7successes'
p60
I1
sS'digit6attempts'
p61
I3
sS'digit8successes'
p62
I2
sS'digit5attempts'
p63
I3
sS'digit8attempts'
p64
I3
sS'digit1successes'
p65
I3
sS'digit2successes'
p66
I3
sS'logins'
p67
I1
sS'digit2attempts'
p68
I4
sS'digit4attempts'
p69
I3
sS'digit9successes'
p70
I2
sS'digit0successes'
p71
I3
sS'digit3successes'
p72
I1
sS'digit7attempts'
p73
I3
sS'digit0attempts'
p74
I4
ssS'mmlmkmkm'
p75
(dp76
S'digit2successes'
p77
I1
sS'logins'
p78
I1
sS'digit0successes'
p79
I1
sS'digit3successes'
p80
I1
sS'digit4successes'
p81
I1
sS'digit0attempts'
p82
I2
sS'digit3attempts'
p83
I2
sS'digit2attempts'
p84
I2
sS'digit1attempts'
p85
I2
sS'numCoins'
p86
I9
sS'digit1successes'
p87
I1
sS'digit4attempts'
p88
I2
sS'currDigitDict'
p89
(lp90
I0
aI1
aI2
aI3
aI4
aI5
assS'plseasework'
p91
(dp92
S'logins'
p93
I1
sS'digit0successes'
p94
I1
sS'digit0attempts'
p95
I2
sS'digit1attempts'
p96
I2
sS'digit2attempts'
p97
I2
sS'numCoins'
p98
I1
sS'digit1successes'
p99
I1
sS'currDigitDict'
p100
(lp101
I0
aI1
aI2
assS'anotha1'
p102
(dp103
S'digit2successes'
p104
I2
sS'logins'
p105
I1
sS'digit0successes'
p106
I3
sS'digit3successes'
p107
I1
sS'digit0attempts'
p108
I4
sS'digit3attempts'
p109
I3
sS'digit2attempts'
p110
I3
sS'digit1attempts'
p111
I4
sS'numCoins'
p112
I2
sS'digit5attempts'
p113
I3
sS'digit1successes'
p114
I3
sS'digit4attempts'
p115
I3
sS'currDigitDict'
p116
(lp117
I0
aI1
aI2
aI3
aI4
aI5
assS'jose'
p118
(dp119
S'digit6successes'
p120
I2
sS'digit1attempts'
p121
I5
sS'digit5successes'
p122
I3
sS'digit9attempts'
p123
I4
sS'digit3attempts'
p124
I4
sS'numCoins'
p125
I0
sS'digit4successes'
p126
I3
sS'currDigitDict'
p127
(lp128
I0
aI1
aI2
aI3
aI4
aI5
aI6
aI7
aI8
aI9
asS'digit7successes'
p129
I1
sS'digit6attempts'
p130
I4
sS'digit8successes'
p131
I1
sS'digit5attempts'
p132
I4
sS'digit8attempts'
p133
I4
sS'digit1successes'
p134
I3
sS'digit2successes'
p135
I3
sS'logins'
p136
I1
sS'digit2attempts'
p137
I4
sS'digit4attempts'
p138
I4
sS'digit0successes'
p139
I3
sS'digit3successes'
p140
I3
sS'digit7attempts'
p141
I4
sS'digit0attempts'
p142
I5
ssS'Vanessa'
p143
(dp144
S'digit6successes'
p145
I1
sS'digit1attempts'
p146
I3
sS'digit5successes'
p147
I1
sS'digit9attempts'
p148
I2
sS'digit3attempts'
p149
I3
sS'numCoins'
p150
I4
sS'digit4successes'
p151
I1
sS'currDigitDict'
p152
(lp153
I0
aI1
aI2
aI3
aI4
aI5
aI6
aI7
aI8
aI9
asS'digit7successes'
p154
I1
sS'digit6attempts'
p155
I2
sS'digit8successes'
p156
I1
sS'digit5attempts'
p157
I2
sS'digit8attempts'
p158
I2
sS'digit1successes'
p159
I2
sS'digit2successes'
p160
I2
sS'logins'
p161
I2
sS'digit2attempts'
p162
I3
sS'digit4attempts'
p163
I2
sS'digit9successes'
p164
I1
sS'digit0successes'
p165
I2
sS'digit3successes'
p166
I2
sS'digit7attempts'
p167
I2
sS'digit0attempts'
p168
I3
ssS'plseas works'
p169
(dp170
S'logins'
p171
I1
sS'numCoins'
p172
I0
sS'currDigitDict'
p173
(lp174
I0
aI1
aI2
assS'cdscsdc'
p175
(dp176
S'digit2successes'
p177
I2
sS'logins'
p178
I1
sS'digit0successes'
p179
I2
sS'digit3successes'
p180
I1
sS'digit0attempts'
p181
I3
sS'digit3attempts'
p182
I2
sS'digit2attempts'
p183
I3
sS'digit1attempts'
p184
I3
sS'numCoins'
p185
I9
sS'digit1successes'
p186
I1
sS'currDigitDict'
p187
(lp188
I0
aI1
aI2
aI3
aI4
aI5
assS'kaboobap'
p189
(dp190
S'digit2successes'
p191
I2
sS'digit4attempts'
p192
I2
sS'digit6successes'
p193
I1
sS'logins'
p194
I1
sS'digit0successes'
p195
I2
sS'digit3successes'
p196
I1
sS'digit5successes'
p197
I1
sS'digit6attempts'
p198
I2
sS'digit0attempts'
p199
I4
sS'digit3attempts'
p200
I2
sS'digit2attempts'
p201
I3
sS'digit1attempts'
p202
I2
sS'numCoins'
p203
I9
sS'digit5attempts'
p204
I2
sS'digit1successes'
p205
I1
sS'digit4successes'
p206
I1
sS'currDigitDict'
p207
(lp208
I0
aI1
aI2
aI3
aI4
aI5
aI6
aI7
aI8
aI9
assS'okokok'
p209
(dp210
S'digit2successes'
p211
I1
sS'digit0attempts'
p212
I2
sS'logins'
p213
I1
sS'digit0successes'
p214
I1
sS'digit1attempts'
p215
I2
sS'digit2attempts'
p216
I2
sS'numCoins'
p217
I3
sS'digit1successes'
p218
I1
sS'currDigitDict'
p219
(lp220
I0
aI1
aI2
aI3
aI4
aI5
assS'jokaman'
p221
(dp222
S'digit2successes'
p223
I2
sS'digit6successes'
p224
I1
sS'digit1attempts'
p225
I3
sS'digit0successes'
p226
I1
sS'digit4successes'
p227
I2
sS'digit3successes'
p228
I1
sS'digit5successes'
p229
I1
sS'digit6attempts'
p230
I2
sS'digit9attempts'
p231
I2
sS'digit8successes'
p232
I1
sS'digit3attempts'
p233
I3
sS'digit2attempts'
p234
I3
sS'digit5attempts'
p235
I2
sS'digit7attempts'
p236
I2
sS'numCoins'
p237
I1
sS'digit0attempts'
p238
I3
sS'digit8attempts'
p239
I2
sS'digit1successes'
p240
I1
sS'logins'
p241
I1
sS'digit4attempts'
p242
I3
sS'currDigitDict'
p243
(lp244
I0
aI1
aI2
aI3
aI4
aI5
aI6
aI7
aI8
aI9
assS'kevinyang'
p245
(dp246
S'logins'
p247
I1
sS'digit0successes'
p248
I1
sS'digit0attempts'
p249
I3
sS'digit1attempts'
p250
I2
sS'digit2attempts'
p251
I2
sS'numCoins'
p252
I1
sS'digit1successes'
p253
I1
sS'currDigitDict'
p254
(lp255
I0
aI1
aI2
assS'ksdfdsfjdslf'
p256
(dp257
S'digit6successes'
p258
I1
sS'digit1attempts'
p259
I5
sS'digit5successes'
p260
I1
sS'digit9attempts'
p261
I2
sS'digit3attempts'
p262
I4
sS'numCoins'
p263
I40
sS'digit4successes'
p264
I2
sS'currDigitDict'
p265
(lp266
I0
aI1
aI2
aI3
aI4
aI5
aI6
aI7
aI8
aI9
asS'digit7successes'
p267
I1
sS'digit6attempts'
p268
I2
sS'digit8successes'
p269
I1
sS'digit5attempts'
p270
I3
sS'digit8attempts'
p271
I2
sS'digit1successes'
p272
I3
sS'digit2successes'
p273
I2
sS'logins'
p274
I1
sS'digit2attempts'
p275
I4
sS'digit4attempts'
p276
I3
sS'digit9successes'
p277
I1
sS'digit0successes'
p278
I3
sS'digit3successes'
p279
I3
sS'digit7attempts'
p280
I2
sS'digit0attempts'
p281
I6
ssS'newTestUser'
p282
(dp283
S'digit1attempts'
p284
I3
sS'digit5successes'
p285
I1
sS'digit9attempts'
p286
I2
sS'digit3attempts'
p287
I3
sS'numCoins'
p288
I18
sS'digit4successes'
p289
I1
sS'currDigitDict'
p290
(lp291
I0
aI1
aI2
aI3
aI4
aI5
aI6
aI7
aI8
aI9
asS'digit7successes'
p292
I1
sS'digit6attempts'
p293
I2
sS'digit8successes'
p294
I1
sS'digit5attempts'
p295
I2
sS'digit8attempts'
p296
I2
sS'digit1successes'
p297
I2
sS'digit2successes'
p298
I1
sS'logins'
p299
I1
sS'digit2attempts'
p300
I3
sS'digit4attempts'
p301
I2
sS'digit9successes'
p302
I1
sS'digit0successes'
p303
I2
sS'digit3successes'
p304
I2
sS'digit7attempts'
p305
I2
sS'digit0attempts'
p306
I3
ssS'sdffw'
p307
(dp308
S'digit0attempts'
p309
I5
sS'logins'
p310
I1
sS'digit0successes'
p311
I4
sS'digit1attempts'
p312
I5
sS'digit2attempts'
p313
I4
sS'numCoins'
p314
I11
sS'digit1successes'
p315
I4
sS'currDigitDict'
p316
(lp317
I0
aI1
aI2
assS'vanessatest'
p318
(dp319
S'digit2successes'
p320
I3
sS'digit4attempts'
p321
I4
sS'digit1attempts'
p322
I5
sS'digit0successes'
p323
I4
sS'digit3successes'
p324
I3
sS'digit5successes'
p325
I1
sS'digit6attempts'
p326
I2
sS'digit9attempts'
p327
I2
sS'digit0attempts'
p328
I5
sS'digit3attempts'
p329
I4
sS'digit2attempts'
p330
I4
sS'digit5attempts'
p331
I4
sS'digit7attempts'
p332
I2
sS'numCoins'
p333
I8
sS'digit8attempts'
p334
I2
sS'digit1successes'
p335
I4
sS'logins'
p336
I2
sS'digit4successes'
p337
I1
sS'currDigitDict'
p338
(lp339
I0
aI1
aI2
aI3
aI4
aI5
aI6
aI7
aI8
aI9
assS'jack'
p340
(dp341
S'digit2successes'
p342
I2
sS'logins'
p343
I1
sS'digit0successes'
p344
I2
sS'digit3successes'
p345
I1
sS'digit0attempts'
p346
I3
sS'digit3attempts'
p347
I2
sS'digit2attempts'
p348
I3
sS'digit1attempts'
p349
I3
sS'numCoins'
p350
I1
sS'digit5attempts'
p351
I2
sS'digit1successes'
p352
I1
sS'digit4attempts'
p353
I2
sS'currDigitDict'
p354
(lp355
I0
aI1
aI2
aI3
aI4
aI5
assS'dfsdfdsf'
p356
(dp357
S'logins'
p358
I1
sS'digit0successes'
p359
I1
sS'digit0attempts'
p360
I2
sS'digit1attempts'
p361
I2
sS'digit2attempts'
p362
I2
sS'numCoins'
p363
I1
sS'digit1successes'
p364
I1
sS'currDigitDict'
p365
(lp366
I0
aI1
aI2
assS'ddvsv'
p367
(dp368
S'digit6successes'
p369
I1
sS'digit1attempts'
p370
I3
sS'digit5successes'
p371
I1
sS'digit9attempts'
p372
I2
sS'digit3attempts'
p373
I3
sS'numCoins'
p374
I16
sS'digit4successes'
p375
I1
sS'currDigitDict'
p376
(lp377
I0
aI1
aI2
aI3
aI4
aI5
aI6
aI7
aI8
aI9
asS'digit7successes'
p378
I1
sS'digit6attempts'
p379
I2
sS'digit8successes'
p380
I1
sS'digit5attempts'
p381
I2
sS'digit8attempts'
p382
I2
sS'digit1successes'
p383
I1
sS'digit2successes'
p384
I2
sS'logins'
p385
I1
sS'digit2attempts'
p386
I3
sS'digit4attempts'
p387
I2
sS'digit9successes'
p388
I1
sS'digit0successes'
p389
I2
sS'digit3successes'
p390
I2
sS'digit7attempts'
p391
I2
sS'digit0attempts'
p392
I3
ssS'habba!'
p393
(dp394
S'digit2successes'
p395
I1
sS'logins'
p396
I1
sS'digit0attempts'
p397
I2
sS'digit1attempts'
p398
I2
sS'digit2attempts'
p399
I2
sS'numCoins'
p400
I1
sS'currDigitDict'
p401
(lp402
I0
aI1
aI2
assS'efwf'
p403
(dp404
S'digit2successes'
p405
I1
sS'logins'
p406
I1
sS'digit0successes'
p407
I1
sS'digit3successes'
p408
I1
sS'digit4successes'
p409
I1
sS'digit0attempts'
p410
I2
sS'digit3attempts'
p411
I2
sS'digit2attempts'
p412
I2
sS'digit1attempts'
p413
I2
sS'numCoins'
p414
I9
sS'digit1successes'
p415
I1
sS'digit4attempts'
p416
I2
sS'currDigitDict'
p417
(lp418
I0
aI1
aI2
aI3
aI4
aI5
assS'fsdfdsbs'
p419
(dp420
S'digit2successes'
p421
I2
sS'logins'
p422
I1
sS'digit0successes'
p423
I3
sS'digit3successes'
p424
I2
sS'digit0attempts'
p425
I4
sS'digit3attempts'
p426
I3
sS'digit2attempts'
p427
I3
sS'digit1attempts'
p428
I3
sS'numCoins'
p429
I6
sS'digit5attempts'
p430
I3
sS'digit1successes'
p431
I2
sS'digit4attempts'
p432
I3
sS'currDigitDict'
p433
(lp434
I0
aI1
aI2
aI3
aI4
aI5
assS'rwerewrew'
p435
(dp436
S'digit0attempts'
p437
I2
sS'logins'
p438
I1
sS'digit0successes'
p439
I1
sS'digit1attempts'
p440
I2
sS'numCoins'
p441
I2
sS'digit1successes'
p442
I1
sS'currDigitDict'
p443
(lp444
I0
aI1
aI2
assS'Turkey'
p445
(dp446
S'logins'
p447
I1
sS'digit0attempts'
p448
I2
sS'digit1attempts'
p449
I2
sS'digit2attempts'
p450
I2
sS'numCoins'
p451
I0
sS'currDigitDict'
p452
(lp453
I0
aI1
aI2
assS'Jackson'
p454
(dp455
S'digit2successes'
p456
I1
sS'logins'
p457
I1
sS'digit0successes'
p458
I1
sS'digit3successes'
p459
I1
sS'digit0attempts'
p460
I2
sS'digit3attempts'
p461
I2
sS'digit2attempts'
p462
I2
sS'digit1attempts'
p463
I2
sS'numCoins'
p464
I4
sS'digit1successes'
p465
I1
sS'currDigitDict'
p466
(lp467
I0
aI1
aI2
aI3
aI4
aI5
assS'vsv'
p468
(dp469
S'logins'
p470
I1
sS'digit0successes'
p471
I5
sS'digit0attempts'
p472
I6
sS'digit1attempts'
p473
I5
sS'digit2attempts'
p474
I5
sS'numCoins'
p475
I10
sS'digit1successes'
p476
I4
sS'currDigitDict'
p477
(lp478
I0
aI1
aI2
assS'retertet'
p479
(dp480
S'logins'
p481
I1
sS'digit0attempts'
p482
I2
sS'numCoins'
p483
I0
sS'currDigitDict'
p484
(lp485
I0
aI1
aI2
assS'fsdfsdfds'
p486
(dp487
S'digit2successes'
p488
I1
sS'digit0attempts'
p489
I2
sS'logins'
p490
I1
sS'digit0successes'
p491
I1
sS'digit1attempts'
p492
I2
sS'digit2attempts'
p493
I2
sS'numCoins'
p494
I1
sS'currDigitDict'
p495
(lp496
I0
aI1
aI2
assS'bahahasjdfkld'
p497
(dp498
S'logins'
p499
I1
sS'digit0attempts'
p500
I2
sS'numCoins'
p501
I1
sS'currDigitDict'
p502
(lp503
I0
aI1
aI2
asS'digit0successes'
p504
I1
ssS'Tina'
p505
(dp506
S'digit2successes'
p507
I1
sS'logins'
p508
I1
sS'digit0successes'
p509
I2
sS'digit3successes'
p510
I1
sS'digit5successes'
p511
I1
sS'digit0attempts'
p512
I3
sS'digit3attempts'
p513
I3
sS'digit2attempts'
p514
I2
sS'digit1attempts'
p515
I2
sS'numCoins'
p516
I5
sS'digit5attempts'
p517
I2
sS'digit1successes'
p518
I1
sS'currDigitDict'
p519
(lp520
I0
aI1
aI2
aI3
aI4
aI5
assS'sdfdsfdsfsd'
p521
(dp522
S'digit2successes'
p523
I1
sS'digit0attempts'
p524
I2
sS'logins'
p525
I1
sS'digit0successes'
p526
I1
sS'digit1attempts'
p527
I2
sS'digit2attempts'
p528
I2
sS'numCoins'
p529
I3
sS'digit1successes'
p530
I1
sS'currDigitDict'
p531
(lp532
I0
aI1
aI2
aI3
aI4
aI5
assS'tesrboy'
p533
(dp534
S'logins'
p535
I1
sS'digit0attempts'
p536
I2
sS'numCoins'
p537
I1
sS'currDigitDict'
p538
(lp539
I0
aI1
aI2
asS'digit0successes'
p540
I1
ssS'sdfsd'
p541
(dp542
S'logins'
p543
I1
sS'digit0attempts'
p544
I2
sS'numCoins'
p545
I1
sS'currDigitDict'
p546
(lp547
I0
aI1
aI2
asS'digit0successes'
p548
I1
ssS'Mike'
p549
(dp550
S'logins'
p551
I1
sS'digit0successes'
p552
I1
sS'digit0attempts'
p553
I2
sS'digit1attempts'
p554
I2
sS'numCoins'
p555
I2
sS'digit1successes'
p556
I1
sS'currDigitDict'
p557
(lp558
I0
aI1
aI2
assS'whatup'
p559
(dp560
S'digit6successes'
p561
I1
sS'digit1attempts'
p562
I6
sS'digit5successes'
p563
I2
sS'digit9attempts'
p564
I4
sS'digit3attempts'
p565
I4
sS'numCoins'
p566
I3
sS'digit4successes'
p567
I1
sS'currDigitDict'
p568
(lp569
I0
aI1
aI2
aI3
aI4
aI5
aI6
aI7
aI8
aI9
asS'digit7successes'
p570
I3
sS'digit6attempts'
p571
I4
sS'digit8successes'
p572
I2
sS'digit5attempts'
p573
I4
sS'digit8attempts'
p574
I4
sS'digit1successes'
p575
I4
sS'digit2successes'
p576
I1
sS'logins'
p577
I1
sS'digit2attempts'
p578
I6
sS'digit4attempts'
p579
I4
sS'digit9successes'
p580
I3
sS'digit0successes'
p581
I3
sS'digit3successes'
p582
I2
sS'digit7attempts'
p583
I4
sS'digit0attempts'
p584
I6
ssS'vsdvdsvsdv'
p585
(dp586
S'digit2successes'
p587
I1
sS'logins'
p588
I1
sS'digit0successes'
p589
I2
sS'digit3successes'
p590
I1
sS'digit0attempts'
p591
I3
sS'digit3attempts'
p592
I2
sS'digit2attempts'
p593
I3
sS'digit1attempts'
p594
I3
sS'numCoins'
p595
I2
sS'digit1successes'
p596
I1
sS'digit4attempts'
p597
I2
sS'currDigitDict'
p598
(lp599
I0
aI1
aI2
aI3
aI4
aI5
assS'sfadfasdf'
p600
(dp601
S'digit2successes'
p602
I1
sS'logins'
p603
I1
sS'digit0successes'
p604
I1
sS'digit3successes'
p605
I1
sS'digit3attempts'
p606
I2
sS'digit4successes'
p607
I1
sS'digit0attempts'
p608
I2
sS'digit1attempts'
p609
I2
sS'digit2attempts'
p610
I2
sS'numCoins'
p611
I9
sS'digit1successes'
p612
I1
sS'digit4attempts'
p613
I2
sS'currDigitDict'
p614
(lp615
I0
aI1
aI2
aI3
aI4
aI5
assS'javathehut'
p616
(dp617
S'digit7successes'
p618
I1
sS'digit2successes'
p619
I2
sS'digit6successes'
p620
I2
sS'digit1attempts'
p621
I4
sS'digit0successes'
p622
I1
sS'digit3successes'
p623
I2
sS'digit5successes'
p624
I2
sS'digit6attempts'
p625
I3
sS'digit9attempts'
p626
I3
sS'logins'
p627
I1
sS'digit3attempts'
p628
I3
sS'digit2attempts'
p629
I3
sS'digit5attempts'
p630
I3
sS'digit7attempts'
p631
I3
sS'numCoins'
p632
I0
sS'digit0attempts'
p633
I4
sS'digit8attempts'
p634
I3
sS'digit1successes'
p635
I2
sS'digit4successes'
p636
I2
sS'digit4attempts'
p637
I3
sS'currDigitDict'
p638
(lp639
I0
aI1
aI2
aI3
aI4
aI5
aI6
aI7
aI8
aI9
assS'halalaladsfl'
p640
(dp641
S'logins'
p642
I1
sS'digit0attempts'
p643
I2
sS'digit1attempts'
p644
I2
sS'digit2attempts'
p645
I2
sS'numCoins'
p646
I0
sS'currDigitDict'
p647
(lp648
I0
aI1
aI2
assS'sdlfjdslkfjsdlk'
p649
(dp650
S'digit7successes'
p651
I1
sS'digit2successes'
p652
I4
sS'digit6successes'
p653
I1
sS'digit1attempts'
p654
I5
sS'digit0successes'
p655
I3
sS'digit3successes'
p656
I4
sS'digit5successes'
p657
I2
sS'digit6attempts'
p658
I2
sS'logins'
p659
I1
sS'digit3attempts'
p660
I5
sS'digit2attempts'
p661
I5
sS'digit5attempts'
p662
I5
sS'digit7attempts'
p663
I2
sS'numCoins'
p664
I8
sS'digit0attempts'
p665
I5
sS'digit8attempts'
p666
I2
sS'digit1successes'
p667
I4
sS'digit4successes'
p668
I1
sS'digit4attempts'
p669
I5
sS'currDigitDict'
p670
(lp671
I0
aI1
aI2
aI3
aI4
aI5
aI6
aI7
aI8
aI9
assS'sdfds'
p672
(dp673
S'digit6successes'
p674
I4
sS'digit1attempts'
p675
I6
sS'digit5successes'
p676
I5
sS'digit9attempts'
p677
I6
sS'digit3attempts'
p678
I6
sS'numCoins'
p679
I95
sS'digit4successes'
p680
I5
sS'currDigitDict'
p681
(lp682
I0
aI1
aI2
aI3
aI4
aI5
aI6
aI7
aI8
aI9
asS'digit7successes'
p683
I1
sS'digit6attempts'
p684
I6
sS'digit8successes'
p685
I5
sS'digit5attempts'
p686
I6
sS'digit8attempts'
p687
I6
sS'digit1successes'
p688
I5
sS'digit2successes'
p689
I5
sS'logins'
p690
I1
sS'digit2attempts'
p691
I6
sS'digit4attempts'
p692
I6
sS'digit9successes'
p693
I5
sS'digit0successes'
p694
I6
sS'digit3successes'
p695
I5
sS'digit7attempts'
p696
I6
sS'digit0attempts'
p697
I7
ssS'Joe'
p698
(dp699
S'digit1attempts'
p700
I2
sS'digit5successes'
p701
I1
sS'digit9attempts'
p702
I2
sS'digit3attempts'
p703
I2
sS'numCoins'
p704
I7
sS'digit4successes'
p705
I1
sS'currDigitDict'
p706
(lp707
I0
aI1
aI2
aI3
aI4
aI5
aI6
aI7
aI8
aI9
asS'digit7successes'
p708
I1
sS'digit6attempts'
p709
I2
sS'digit8successes'
p710
I1
sS'digit5attempts'
p711
I2
sS'digit8attempts'
p712
I2
sS'digit1successes'
p713
I1
sS'digit2successes'
p714
I1
sS'logins'
p715
I1
sS'digit2attempts'
p716
I2
sS'digit4attempts'
p717
I2
sS'digit9successes'
p718
I1
sS'digit0successes'
p719
I1
sS'digit3successes'
p720
I1
sS'digit7attempts'
p721
I2
sS'digit0attempts'
p722
I3
ssS'asjdfjsda'
p723
(dp724
S'digit1attempts'
p725
I3
sS'digit5successes'
p726
I1
sS'digit9attempts'
p727
I2
sS'digit3attempts'
p728
I3
sS'numCoins'
p729
I21
sS'digit4successes'
p730
I2
sS'currDigitDict'
p731
(lp732
I0
aI1
aI2
aI3
aI4
aI5
aI6
aI7
aI8
aI9
asS'digit7successes'
p733
I1
sS'digit6attempts'
p734
I2
sS'digit8successes'
p735
I1
sS'digit5attempts'
p736
I2
sS'digit8attempts'
p737
I2
sS'digit1successes'
p738
I2
sS'digit2successes'
p739
I2
sS'logins'
p740
I1
sS'digit2attempts'
p741
I3
sS'digit4attempts'
p742
I3
sS'digit9successes'
p743
I1
sS'digit0successes'
p744
I2
sS'digit3successes'
p745
I2
sS'digit7attempts'
p746
I2
sS'digit0attempts'
p747
I3
ssS'bahooga'
p748
(dp749
S'digit2successes'
p750
I2
sS'logins'
p751
I1
sS'digit0successes'
p752
I2
sS'digit3successes'
p753
I2
sS'digit4successes'
p754
I1
sS'digit0attempts'
p755
I3
sS'digit3attempts'
p756
I3
sS'digit2attempts'
p757
I3
sS'digit1attempts'
p758
I3
sS'numCoins'
p759
I18
sS'digit5attempts'
p760
I2
sS'digit1successes'
p761
I2
sS'digit4attempts'
p762
I2
sS'currDigitDict'
p763
(lp764
I0
aI1
aI2
aI3
aI4
aI5
assS'jackkiiee'
p765
(dp766
S'digit2successes'
p767
I1
sS'digit0attempts'
p768
I2
sS'logins'
p769
I1
sS'digit0successes'
p770
I1
sS'digit1attempts'
p771
I2
sS'digit2attempts'
p772
I2
sS'numCoins'
p773
I1
sS'currDigitDict'
p774
(lp775
I0
aI1
aI2
assS'fewgwegweg'
p776
(dp777
S'logins'
p778
I1
sS'numCoins'
p779
I0
sS'currDigitDict'
p780
(lp781
I0
aI1
aI2
assS'werewrewrwr'
p782
(dp783
S'logins'
p784
I1
sS'digit0attempts'
p785
I2
sS'digit1attempts'
p786
I2
sS'currDigitDict'
p787
(lp788
I0
aI1
aI2
asS'numCoins'
p789
I0
ssS'fdsfdsfdsfdsf'
p790
(dp791
S'digit0attempts'
p792
I3
sS'logins'
p793
I1
sS'digit0successes'
p794
I2
sS'digit1attempts'
p795
I3
sS'digit2attempts'
p796
I2
sS'numCoins'
p797
I0
sS'currDigitDict'
p798
(lp799
I0
aI1
aI2
assS'sdlkfjsdfsdf'
p800
(dp801
S'digit2successes'
p802
I1
sS'logins'
p803
I1
sS'digit0successes'
p804
I1
sS'digit1attempts'
p805
I3
sS'digit5successes'
p806
I1
sS'digit0attempts'
p807
I3
sS'digit3attempts'
p808
I2
sS'digit2attempts'
p809
I2
sS'digit5attempts'
p810
I2
sS'numCoins'
p811
I0
sS'digit1successes'
p812
I1
sS'digit4attempts'
p813
I2
sS'currDigitDict'
p814
(lp815
I0
aI1
aI2
aI3
aI4
aI5
assS'plzwork2394324'
p816
(dp817
S'logins'
p818
I1
sS'digit0successes'
p819
I4
sS'digit0attempts'
p820
I5
sS'digit1attempts'
p821
I5
sS'digit2attempts'
p822
I4
sS'numCoins'
p823
I7
sS'digit1successes'
p824
I4
sS'currDigitDict'
p825
(lp826
I0
aI1
aI2
assS'ksdfjdslkfds'
p827
(dp828
S'logins'
p829
I1
sS'digit0attempts'
p830
I2
sS'digit1attempts'
p831
I2
sS'digit2attempts'
p832
I2
sS'numCoins'
p833
I0
sS'currDigitDict'
p834
(lp835
I0
aI1
aI2
assS'vsdvsdv'
p836
(dp837
S'digit2successes'
p838
I1
sS'logins'
p839
I2
sS'digit0successes'
p840
I4
sS'digit0attempts'
p841
I5
sS'digit1attempts'
p842
I4
sS'digit2attempts'
p843
I4
sS'numCoins'
p844
I3
sS'digit1successes'
p845
I1
sS'currDigitDict'
p846
(lp847
I0
aI1
aI2
aI3
aI4
aI5
assS'hehehe'
p848
(dp849
S'digit2successes'
p850
I1
sS'digit0attempts'
p851
I2
sS'logins'
p852
I1
sS'digit0successes'
p853
I1
sS'digit1attempts'
p854
I2
sS'digit2attempts'
p855
I2
sS'numCoins'
p856
I3
sS'digit1successes'
p857
I1
sS'currDigitDict'
p858
(lp859
I0
aI1
aI2
aI3
aI4
aI5
assS'yessssirrrr'
p860
(dp861
S'logins'
p862
I1
sS'digit0successes'
p863
I1
sS'digit0attempts'
p864
I2
sS'digit1attempts'
p865
I2
sS'numCoins'
p866
I0
sS'currDigitDict'
p867
(lp868
I0
aI1
aI2
assS'oohh'
p869
(dp870
S'digit6successes'
p871
I1
sS'digit1attempts'
p872
I3
sS'digit5successes'
p873
I1
sS'digit9attempts'
p874
I2
sS'digit3attempts'
p875
I3
sS'numCoins'
p876
I14
sS'digit4successes'
p877
I1
sS'currDigitDict'
p878
(lp879
I0
aI1
aI2
aI3
aI4
aI5
aI6
aI7
aI8
aI9
asS'digit7successes'
p880
I1
sS'digit6attempts'
p881
I2
sS'digit8successes'
p882
I1
sS'digit5attempts'
p883
I2
sS'digit8attempts'
p884
I2
sS'digit1successes'
p885
I2
sS'digit2successes'
p886
I2
sS'logins'
p887
I1
sS'digit2attempts'
p888
I3
sS'digit4attempts'
p889
I2
sS'digit9successes'
p890
I1
sS'digit0successes'
p891
I2
sS'digit3successes'
p892
I2
sS'digit7attempts'
p893
I2
sS'digit0attempts'
p894
I3
ssS'lovable'
p895
(dp896
S'digit2successes'
p897
I1
sS'digit4attempts'
p898
I2
sS'digit6successes'
p899
I1
sS'digit1attempts'
p900
I3
sS'digit0successes'
p901
I2
sS'digit3successes'
p902
I1
sS'digit5successes'
p903
I1
sS'digit6attempts'
p904
I2
sS'digit9attempts'
p905
I2
sS'logins'
p906
I1
sS'digit3attempts'
p907
I2
sS'digit2attempts'
p908
I3
sS'digit5attempts'
p909
I2
sS'digit7attempts'
p910
I2
sS'numCoins'
p911
I0
sS'digit0attempts'
p912
I3
sS'digit8attempts'
p913
I2
sS'digit1successes'
p914
I2
sS'digit4successes'
p915
I1
sS'currDigitDict'
p916
(lp917
I0
aI1
aI2
aI3
aI4
aI5
aI6
aI7
aI8
aI9
assS'bnksdfl'
p918
(dp919
S'digit2successes'
p920
I1
sS'logins'
p921
I1
sS'digit0successes'
p922
I2
sS'digit3successes'
p923
I1
sS'digit5successes'
p924
I1
sS'digit0attempts'
p925
I3
sS'digit3attempts'
p926
I2
sS'digit2attempts'
p927
I2
sS'digit1attempts'
p928
I3
sS'numCoins'
p929
I11
sS'digit5attempts'
p930
I2
sS'digit1successes'
p931
I2
sS'digit4attempts'
p932
I2
sS'currDigitDict'
p933
(lp934
I0
aI1
aI2
aI3
aI4
aI5
assS'Isaac'
p935
(dp936
S'logins'
p937
I2
sS'digit0attempts'
p938
I2
sS'digit1attempts'
p939
I2
sS'numCoins'
p940
I1
sS'digit1successes'
p941
I1
sS'currDigitDict'
p942
(lp943
I0
aI1
aI2
assS'Henlo'
p944
(dp945
S'digit2successes'
p946
I1
sS'digit0attempts'
p947
I2
sS'logins'
p948
I1
sS'digit0successes'
p949
I1
sS'digit1attempts'
p950
I2
sS'digit2attempts'
p951
I2
sS'numCoins'
p952
I3
sS'digit1successes'
p953
I1
sS'currDigitDict'
p954
(lp955
I0
aI1
aI2
aI3
aI4
aI5
assS'yayaysek!'
p956
(dp957
S'digit2successes'
p958
I1
sS'logins'
p959
I1
sS'digit0successes'
p960
I1
sS'digit3successes'
p961
I1
sS'digit5successes'
p962
I1
sS'digit0attempts'
p963
I2
sS'digit3attempts'
p964
I2
sS'digit2attempts'
p965
I2
sS'digit1attempts'
p966
I2
sS'numCoins'
p967
I4
sS'digit5attempts'
p968
I2
sS'digit1successes'
p969
I1
sS'digit4attempts'
p970
I2
sS'currDigitDict'
p971
(lp972
I0
aI1
aI2
aI3
aI4
aI5
assS'dfewrwe'
p973
(dp974
S'logins'
p975
I1
sS'currDigitDict'
p976
(lp977
I0
aI1
aI2
asS'numCoins'
p978
I0
ssS'yesssirree!'
p979
(dp980
S'logins'
p981
I1
sS'digit0attempts'
p982
I2
sS'currDigitDict'
p983
(lp984
I0
aI1
aI2
asS'numCoins'
p985
I0
ssS'dsfsdfs'
p986
(dp987
S'digit2successes'
p988
I1
sS'logins'
p989
I1
sS'digit0successes'
p990
I1
sS'digit3successes'
p991
I1
sS'digit5successes'
p992
I1
sS'digit4successes'
p993
I1
sS'digit0attempts'
p994
I2
sS'digit3attempts'
p995
I2
sS'digit2attempts'
p996
I2
sS'digit1attempts'
p997
I2
sS'numCoins'
p998
I10
sS'digit5attempts'
p999
I2
sS'digit1successes'
p1000
I1
sS'digit4attempts'
p1001
I2
sS'currDigitDict'
p1002
(lp1003
I0
aI1
aI2
aI3
aI4
aI5
aI6
aI7
aI8
aI9
assS'tina'
p1004
(dp1005
S'logins'
p1006
I1
sS'numCoins'
p1007
I0
sS'currDigitDict'
p1008
(lp1009
I0
aI1
aI2
assS'Connor'
p1010
(dp1011
S'digit6successes'
p1012
I2
sS'digit1attempts'
p1013
I5
sS'digit5successes'
p1014
I2
sS'digit9attempts'
p1015
I3
sS'digit3attempts'
p1016
I4
sS'numCoins'
p1017
I7
sS'digit4successes'
p1018
I2
sS'currDigitDict'
p1019
(lp1020
I0
aI1
aI2
aI3
aI4
aI5
aI6
aI7
aI8
aI9
asS'digit7successes'
p1021
I1
sS'digit6attempts'
p1022
I3
sS'digit8successes'
p1023
I2
sS'digit5attempts'
p1024
I3
sS'digit8attempts'
p1025
I3
sS'digit1successes'
p1026
I3
sS'digit2successes'
p1027
I3
sS'logins'
p1028
I3
sS'digit2attempts'
p1029
I4
sS'digit4attempts'
p1030
I3
sS'digit9successes'
p1031
I2
sS'digit0successes'
p1032
I3
sS'digit3successes'
p1033
I3
sS'digit7attempts'
p1034
I3
sS'digit0attempts'
p1035
I5
ssS'yaha'
p1036
(dp1037
S'logins'
p1038
I1
sS'numCoins'
p1039
I0
sS'currDigitDict'
p1040
(lp1041
I0
aI1
aI2
assS'newUserBaddd'
p1042
(dp1043
S'digit6successes'
p1044
I3
sS'digit1attempts'
p1045
I7
sS'digit5successes'
p1046
I5
sS'digit9attempts'
p1047
I5
sS'digit3attempts'
p1048
I7
sS'numCoins'
p1049
I1
sS'digit4successes'
p1050
I4
sS'currDigitDict'
p1051
(lp1052
I0
aI1
aI2
aI3
aI4
aI5
aI6
aI7
aI8
aI9
asS'digit7successes'
p1053
I1
sS'digit6attempts'
p1054
I7
sS'digit8successes'
p1055
I3
sS'digit5attempts'
p1056
I7
sS'digit8attempts'
p1057
I4
sS'digit1successes'
p1058
I4
sS'digit2successes'
p1059
I4
sS'logins'
p1060
I3
sS'digit2attempts'
p1061
I7
sS'digit4attempts'
p1062
I7
sS'digit9successes'
p1063
I4
sS'digit0successes'
p1064
I4
sS'digit3successes'
p1065
I4
sS'digit7attempts'
p1066
I7
sS'digit0attempts'
p1067
I8
ssS'asdfasdfds'
p1068
(dp1069
S'logins'
p1070
I1
sS'digit0attempts'
p1071
I2
sS'currDigitDict'
p1072
(lp1073
I0
aI1
aI2
asS'numCoins'
p1074
I1
sS'digit0successes'
p1075
I1
ssS'sdf'
p1076
(dp1077
S'digit2successes'
p1078
I1
sS'logins'
p1079
I1
sS'digit0successes'
p1080
I1
sS'digit3successes'
p1081
I1
sS'digit5successes'
p1082
I1
sS'digit4successes'
p1083
I1
sS'digit0attempts'
p1084
I2
sS'digit3attempts'
p1085
I2
sS'digit2attempts'
p1086
I2
sS'digit1attempts'
p1087
I2
sS'numCoins'
p1088
I10
sS'digit5attempts'
p1089
I2
sS'digit1successes'
p1090
I1
sS'digit4attempts'
p1091
I2
sS'currDigitDict'
p1092
(lp1093
I0
aI1
aI2
aI3
aI4
aI5
aI6
aI7
aI8
aI9
assS'vanessatesstplz'
p1094
(dp1095
S'digit2successes'
p1096
I1
sS'logins'
p1097
I1
sS'digit0successes'
p1098
I1
sS'digit0attempts'
p1099
I2
sS'digit1attempts'
p1100
I2
sS'digit2attempts'
p1101
I2
sS'numCoins'
p1102
I3
sS'digit1successes'
p1103
I1
sS'currDigitDict'
p1104
(lp1105
I0
aI1
aI2
aI3
aI4
aI5
assS'sldkfjsdlkfs'
p1106
(dp1107
S'logins'
p1108
I1
sS'digit0successes'
p1109
I1
sS'digit0attempts'
p1110
I2
sS'digit1attempts'
p1111
I2
sS'digit2attempts'
p1112
I2
sS'numCoins'
p1113
I1
sS'digit1successes'
p1114
I1
sS'currDigitDict'
p1115
(lp1116
I0
aI1
aI2
assS'johnnkk'
p1117
(dp1118
S'logins'
p1119
I1
sS'numCoins'
p1120
I0
sS'currDigitDict'
p1121
(lp1122
I0
aI1
aI2
assS'tean the bean'
p1123
(dp1124
S'digit6successes'
p1125
I1
sS'digit1attempts'
p1126
I6
sS'digit5successes'
p1127
I3
sS'digit9attempts'
p1128
I4
sS'digit3attempts'
p1129
I5
sS'numCoins'
p1130
I4
sS'digit4successes'
p1131
I4
sS'currDigitDict'
p1132
(lp1133
I0
aI1
aI2
aI3
aI4
aI5
aI6
aI7
aI8
aI9
asS'digit7successes'
p1134
I1
sS'digit6attempts'
p1135
I4
sS'digit8successes'
p1136
I1
sS'digit5attempts'
p1137
I4
sS'digit8attempts'
p1138
I4
sS'digit1successes'
p1139
I3
sS'digit2successes'
p1140
I3
sS'logins'
p1141
I1
sS'digit2attempts'
p1142
I6
sS'digit4attempts'
p1143
I5
sS'digit9successes'
p1144
I2
sS'digit0successes'
p1145
I2
sS'digit3successes'
p1146
I4
sS'digit7attempts'
p1147
I4
sS'digit0attempts'
p1148
I6
ssS'kdfdsfjdsfl'
p1149
(dp1150
S'logins'
p1151
I1
sS'digit0attempts'
p1152
I3
sS'digit1attempts'
p1153
I3
sS'digit2attempts'
p1154
I2
sS'numCoins'
p1155
I1
sS'digit1successes'
p1156
I2
sS'currDigitDict'
p1157
(lp1158
I0
aI1
aI2
assS'vsdvsdvsdvds'
p1159
(dp1160
S'logins'
p1161
I1
sS'currDigitDict'
p1162
(lp1163
I0
aI1
aI2
asS'numCoins'
p1164
I0
ssS'gooba'
p1165
(dp1166
S'digit2successes'
p1167
I1
sS'digit0attempts'
p1168
I2
sS'logins'
p1169
I1
sS'digit0successes'
p1170
I1
sS'digit1attempts'
p1171
I2
sS'digit2attempts'
p1172
I2
sS'numCoins'
p1173
I3
sS'digit1successes'
p1174
I1
sS'currDigitDict'
p1175
(lp1176
I0
aI1
aI2
aI3
aI4
aI5
assS'svsdvs'
p1177
(dp1178
S'logins'
p1179
I1
sS'digit0successes'
p1180
I1
sS'digit0attempts'
p1181
I2
sS'digit1attempts'
p1182
I2
sS'numCoins'
p1183
I0
sS'currDigitDict'
p1184
(lp1185
I0
aI1
aI2
assS'klajsdflkajsdlfk'
p1186
(dp1187
S'digit0attempts'
p1188
I2
sS'logins'
p1189
I1
sS'digit0successes'
p1190
I1
sS'digit1attempts'
p1191
I2
sS'digit2attempts'
p1192
I2
sS'numCoins'
p1193
I1
sS'digit1successes'
p1194
I1
sS'currDigitDict'
p1195
(lp1196
I0
aI1
aI2
assS'kaboocha'
p1197
(dp1198
S'digit0attempts'
p1199
I3
sS'logins'
p1200
I1
sS'digit0successes'
p1201
I1
sS'digit1attempts'
p1202
I2
sS'digit2attempts'
p1203
I2
sS'numCoins'
p1204
I0
sS'digit1successes'
p1205
I1
sS'currDigitDict'
p1206
(lp1207
I0
aI1
aI2
assS'dsfsdfadf'
p1208
(dp1209
S'logins'
p1210
I1
sS'digit0successes'
p1211
I1
sS'digit0attempts'
p1212
I2
sS'digit1attempts'
p1213
I2
sS'numCoins'
p1214
I2
sS'digit1successes'
p1215
I1
sS'currDigitDict'
p1216
(lp1217
I0
aI1
aI2
assS'lkjlkjkl'
p1218
(dp1219
S'digit2successes'
p1220
I1
sS'logins'
p1221
I1
sS'digit0successes'
p1222
I1
sS'digit3successes'
p1223
I1
sS'digit4attempts'
p1224
I2
sS'digit0attempts'
p1225
I2
sS'digit3attempts'
p1226
I2
sS'digit2attempts'
p1227
I2
sS'digit1attempts'
p1228
I2
sS'numCoins'
p1229
I9
sS'digit1successes'
p1230
I1
sS'digit4successes'
p1231
I1
sS'currDigitDict'
p1232
(lp1233
I0
aI1
aI2
aI3
aI4
aI5
assS'dababy'
p1234
(dp1235
S'digit2successes'
p1236
I1
sS'logins'
p1237
I1
sS'digit0successes'
p1238
I2
sS'digit3successes'
p1239
I2
sS'digit5successes'
p1240
I1
sS'digit0attempts'
p1241
I3
sS'digit3attempts'
p1242
I3
sS'digit2attempts'
p1243
I3
sS'digit1attempts'
p1244
I3
sS'numCoins'
p1245
I14
sS'digit5attempts'
p1246
I2
sS'digit1successes'
p1247
I2
sS'digit4attempts'
p1248
I2
sS'currDigitDict'
p1249
(lp1250
I0
aI1
aI2
aI3
aI4
aI5
assS'lsdfjsd'
p1251
(dp1252
S'digit9successes'
p1253
I1
sS'digit2successes'
p1254
I3
sS'digit4attempts'
p1255
I3
sS'digit0attempts'
p1256
I4
sS'digit1attempts'
p1257
I4
sS'digit0successes'
p1258
I3
sS'digit3successes'
p1259
I1
sS'digit5successes'
p1260
I1
sS'digit6attempts'
p1261
I2
sS'digit9attempts'
p1262
I2
sS'digit8successes'
p1263
I1
sS'digit3attempts'
p1264
I3
sS'digit2attempts'
p1265
I4
sS'digit5attempts'
p1266
I3
sS'digit7attempts'
p1267
I2
sS'numCoins'
p1268
I4
sS'digit8attempts'
p1269
I2
sS'digit1successes'
p1270
I2
sS'logins'
p1271
I1
sS'digit4successes'
p1272
I2
sS'currDigitDict'
p1273
(lp1274
I0
aI1
aI2
aI3
aI4
aI5
aI6
aI7
aI8
aI9
assS'fewfwef'
p1275
(dp1276
S'digit2successes'
p1277
I1
sS'logins'
p1278
I1
sS'digit0successes'
p1279
I2
sS'digit3successes'
p1280
I1
sS'digit4attempts'
p1281
I2
sS'digit0attempts'
p1282
I3
sS'digit3attempts'
p1283
I2
sS'digit2attempts'
p1284
I2
sS'digit1attempts'
p1285
I3
sS'numCoins'
p1286
I8
sS'digit5attempts'
p1287
I2
sS'digit1successes'
p1288
I1
sS'digit4successes'
p1289
I1
sS'currDigitDict'
p1290
(lp1291
I0
aI1
aI2
aI3
aI4
aI5
assS'jljkj'
p1292
(dp1293
S'digit2successes'
p1294
I1
sS'logins'
p1295
I1
sS'digit0successes'
p1296
I1
sS'digit3successes'
p1297
I1
sS'digit5successes'
p1298
I1
sS'digit4attempts'
p1299
I2
sS'digit0attempts'
p1300
I2
sS'digit3attempts'
p1301
I2
sS'digit2attempts'
p1302
I2
sS'digit1attempts'
p1303
I2
sS'numCoins'
p1304
I10
sS'digit5attempts'
p1305
I2
sS'digit1successes'
p1306
I1
sS'digit4successes'
p1307
I1
sS'currDigitDict'
p1308
(lp1309
I0
aI1
aI2
aI3
aI4
aI5
aI6
aI7
aI8
aI9
assS'klklkl'
p1310
(dp1311
S'digit2successes'
p1312
I1
sS'logins'
p1313
I1
sS'digit0successes'
p1314
I1
sS'digit3successes'
p1315
I1
sS'digit4attempts'
p1316
I2
sS'digit0attempts'
p1317
I2
sS'digit3attempts'
p1318
I2
sS'digit2attempts'
p1319
I2
sS'digit1attempts'
p1320
I2
sS'numCoins'
p1321
I9
sS'digit1successes'
p1322
I1
sS'digit4successes'
p1323
I1
sS'currDigitDict'
p1324
(lp1325
I0
aI1
aI2
aI3
aI4
aI5
assS'connor '
p1326
(dp1327
S'digit2successes'
p1328
I1
sS'logins'
p1329
I1
sS'digit0successes'
p1330
I1
sS'digit0attempts'
p1331
I2
sS'digit1attempts'
p1332
I2
sS'digit2attempts'
p1333
I3
sS'numCoins'
p1334
I2
sS'digit1successes'
p1335
I1
sS'currDigitDict'
p1336
(lp1337
I0
aI1
aI2
aI3
aI4
aI5
assS'hallaaaaa'
p1338
(dp1339
S'digit2successes'
p1340
I2
sS'logins'
p1341
I1
sS'digit0successes'
p1342
I3
sS'digit3successes'
p1343
I1
sS'digit4attempts'
p1344
I3
sS'digit0attempts'
p1345
I6
sS'digit3attempts'
p1346
I3
sS'digit2attempts'
p1347
I5
sS'digit1attempts'
p1348
I5
sS'numCoins'
p1349
I3
sS'digit5attempts'
p1350
I3
sS'digit1successes'
p1351
I3
sS'digit4successes'
p1352
I2
sS'currDigitDict'
p1353
(lp1354
I0
aI1
aI2
aI3
aI4
aI5
assS'kabbito'
p1355
(dp1356
S'digit2successes'
p1357
I1
sS'logins'
p1358
I1
sS'digit0attempts'
p1359
I2
sS'digit1attempts'
p1360
I2
sS'digit2attempts'
p1361
I2
sS'numCoins'
p1362
I2
sS'digit1successes'
p1363
I1
sS'currDigitDict'
p1364
(lp1365
I0
aI1
aI2
assS'slkdfjasldkf'
p1366
(dp1367
S'digit2successes'
p1368
I1
sS'logins'
p1369
I1
sS'digit0successes'
p1370
I1
sS'digit3successes'
p1371
I1
sS'digit4successes'
p1372
I1
sS'digit0attempts'
p1373
I2
sS'digit3attempts'
p1374
I2
sS'digit2attempts'
p1375
I2
sS'digit1attempts'
p1376
I2
sS'numCoins'
p1377
I9
sS'digit1successes'
p1378
I1
sS'digit4attempts'
p1379
I2
sS'currDigitDict'
p1380
(lp1381
I0
aI1
aI2
aI3
aI4
aI5
assS'kevin'
p1382
(dp1383
S'logins'
p1384
I1
sS'numCoins'
p1385
I0
sS'currDigitDict'
p1386
(lp1387
I0
aI1
aI2
assS'Isaac C'
p1388
(dp1389
S'logins'
p1390
I1
sS'currDigitDict'
p1391
(lp1392
I0
aI1
aI2
asS'numCoins'
p1393
I0
ssS'plzwork239420384'
p1394
(dp1395
S'digit6successes'
p1396
I1
sS'digit1attempts'
p1397
I6
sS'digit5successes'
p1398
I1
sS'digit9attempts'
p1399
I2
sS'digit3attempts'
p1400
I3
sS'numCoins'
p1401
I2
sS'digit4successes'
p1402
I2
sS'currDigitDict'
p1403
(lp1404
I0
aI1
aI2
aI3
aI4
aI5
aI6
aI7
aI8
aI9
asS'digit7successes'
p1405
I1
sS'digit6attempts'
p1406
I2
sS'digit8successes'
p1407
I1
sS'digit5attempts'
p1408
I2
sS'digit8attempts'
p1409
I2
sS'digit1successes'
p1410
I4
sS'digit2successes'
p1411
I2
sS'logins'
p1412
I1
sS'digit2attempts'
p1413
I7
sS'digit4attempts'
p1414
I3
sS'digit9successes'
p1415
I1
sS'digit0successes'
p1416
I3
sS'digit3successes'
p1417
I2
sS'digit7attempts'
p1418
I2
sS'digit0attempts'
p1419
I5
ssS'dvdsvdsvsdv'
p1420
(dp1421
S'logins'
p1422
I1
sS'numCoins'
p1423
I0
sS'currDigitDict'
p1424
(lp1425
I0
aI1
aI2
assS'Tester'
p1426
(dp1427
S'logins'
p1428
I1
sS'digit0attempts'
p1429
I2
sS'currDigitDict'
p1430
(lp1431
I0
aI1
aI2
asS'numCoins'
p1432
I0
ssS'Andrew'
p1433
(dp1434
S'logins'
p1435
I1
sS'digit0attempts'
p1436
I2
sS'numCoins'
p1437
I1
sS'currDigitDict'
p1438
(lp1439
I0
aI1
aI2
asS'digit0successes'
p1440
I1
ssS'vsvsvsv'
p1441
(dp1442
S'digit0attempts'
p1443
I2
sS'logins'
p1444
I1
sS'digit0successes'
p1445
I1
sS'digit1attempts'
p1446
I2
sS'digit2attempts'
p1447
I2
sS'numCoins'
p1448
I0
sS'currDigitDict'
p1449
(lp1450
I0
aI1
aI2
assS'brandon'
p1451
(dp1452
S'logins'
p1453
I1
sS'digit0successes'
p1454
I1
sS'digit0attempts'
p1455
I2
sS'digit1attempts'
p1456
I2
sS'digit2attempts'
p1457
I2
sS'numCoins'
p1458
I1
sS'digit1successes'
p1459
I1
sS'currDigitDict'
p1460
(lp1461
I0
aI1
aI2
assS'plzwork1934'
p1462
(dp1463
S'logins'
p1464
I1
sS'currDigitDict'
p1465
(lp1466
I0
aI1
aI2
asS'numCoins'
p1467
I0
ssS'test'
p1468
(dp1469
S'digit2successes'
p1470
I1
sS'logins'
p1471
I1
sS'digit0successes'
p1472
I1
sS'digit3successes'
p1473
I1
sS'digit0attempts'
p1474
I2
sS'digit3attempts'
p1475
I2
sS'digit2attempts'
p1476
I2
sS'digit1attempts'
p1477
I2
sS'numCoins'
p1478
I4
sS'digit1successes'
p1479
I1
sS'currDigitDict'
p1480
(lp1481
I0
aI1
aI2
aI3
aI4
aI5
assS'bahookd'
p1482
(dp1483
S'digit6successes'
p1484
I1
sS'digit1attempts'
p1485
I2
sS'digit5successes'
p1486
I1
sS'digit9attempts'
p1487
I2
sS'digit3attempts'
p1488
I2
sS'numCoins'
p1489
I22
sS'digit4successes'
p1490
I1
sS'currDigitDict'
p1491
(lp1492
I0
aI1
aI2
aI3
aI4
aI5
aI6
aI7
aI8
aI9
asS'digit7successes'
p1493
I1
sS'digit6attempts'
p1494
I2
sS'digit8successes'
p1495
I1
sS'digit5attempts'
p1496
I2
sS'digit8attempts'
p1497
I2
sS'digit1successes'
p1498
I1
sS'digit2successes'
p1499
I1
sS'logins'
p1500
I1
sS'digit2attempts'
p1501
I2
sS'digit4attempts'
p1502
I2
sS'digit9successes'
p1503
I1
sS'digit0successes'
p1504
I1
sS'digit3successes'
p1505
I1
sS'digit7attempts'
p1506
I2
sS'digit0attempts'
p1507
I3
ssS'bsbsfbsf'
p1508
(dp1509
S'digit0attempts'
p1510
I2
sS'logins'
p1511
I1
sS'digit0successes'
p1512
I1
sS'digit1attempts'
p1513
I2
sS'numCoins'
p1514
I2
sS'digit1successes'
p1515
I1
sS'currDigitDict'
p1516
(lp1517
I0
aI1
aI2
assS'norman'
p1518
(dp1519
S'digit2successes'
p1520
I1
sS'logins'
p1521
I1
sS'digit0successes'
p1522
I1
sS'digit3successes'
p1523
I1
sS'digit0attempts'
p1524
I2
sS'digit3attempts'
p1525
I2
sS'digit2attempts'
p1526
I2
sS'digit1attempts'
p1527
I2
sS'numCoins'
p1528
I4
sS'digit1successes'
p1529
I1
sS'currDigitDict'
p1530
(lp1531
I0
aI1
aI2
aI3
aI4
aI5
assS'dsfsdf'
p1532
(dp1533
S'digit2successes'
p1534
I1
sS'logins'
p1535
I1
sS'digit0successes'
p1536
I2
sS'digit3attempts'
p1537
I2
sS'digit5successes'
p1538
I1
sS'digit4successes'
p1539
I1
sS'digit0attempts'
p1540
I3
sS'digit1attempts'
p1541
I2
sS'digit2attempts'
p1542
I2
sS'digit5attempts'
p1543
I2
sS'numCoins'
p1544
I5
sS'digit1successes'
p1545
I1
sS'digit4attempts'
p1546
I2
sS'currDigitDict'
p1547
(lp1548
I0
aI1
aI2
aI3
aI4
aI5
assS'connorsfdsfsdf'
p1549
(dp1550
S'digit0attempts'
p1551
I2
sS'logins'
p1552
I1
sS'digit0successes'
p1553
I1
sS'digit1attempts'
p1554
I2
sS'numCoins'
p1555
I0
sS'currDigitDict'
p1556
(lp1557
I0
aI1
aI2
assS'sdlkfjsdlfds'
p1558
(dp1559
S'logins'
p1560
I1
sS'numCoins'
p1561
I0
sS'currDigitDict'
p1562
(lp1563
I0
aI1
aI2
assS'plzzzz'
p1564
(dp1565
S'digit2successes'
p1566
I1
sS'logins'
p1567
I1
sS'digit0successes'
p1568
I1
sS'digit3successes'
p1569
I1
sS'digit5successes'
p1570
I1
sS'digit4attempts'
p1571
I2
sS'digit0attempts'
p1572
I2
sS'digit3attempts'
p1573
I2
sS'digit2attempts'
p1574
I2
sS'digit1attempts'
p1575
I2
sS'numCoins'
p1576
I11
sS'digit5attempts'
p1577
I2
sS'digit1successes'
p1578
I1
sS'digit4successes'
p1579
I1
sS'currDigitDict'
p1580
(lp1581
I0
aI1
aI2
aI3
aI4
aI5
aI6
aI7
aI8
aI9
assS'joeeey'
p1582
(dp1583
S'logins'
p1584
I1
sS'currDigitDict'
p1585
(lp1586
I0
aI1
aI2
asS'numCoins'
p1587
I0
ssS'connor'
p1588
(dp1589
S'digit6successes'
p1590
I1
sS'digit1attempts'
p1591
I10
sS'digit5successes'
p1592
I5
sS'digit9attempts'
p1593
I2
sS'digit3attempts'
p1594
I9
sS'numCoins'
p1595
I0
sS'digit4successes'
p1596
I5
sS'currDigitDict'
p1597
(lp1598
I0
aI1
aI2
aI3
aI4
aI5
aI6
aI7
aI8
aI9
asS'digit7successes'
p1599
I1
sS'digit6attempts'
p1600
I3
sS'digit8successes'
p1601
I1
sS'digit5attempts'
p1602
I6
sS'digit8attempts'
p1603
I2
sS'digit1successes'
p1604
I8
sS'digit2successes'
p1605
I6
sS'logins'
p1606
I17
sS'digit2attempts'
p1607
I10
sS'digit4attempts'
p1608
I7
sS'digit9successes'
p1609
I1
sS'digit0successes'
p1610
I7
sS'digit3successes'
p1611
I6
sS'digit7attempts'
p1612
I2
sS'digit0attempts'
p1613
I12
ssS'jabaaaka'
p1614
(dp1615
S'digit9successes'
p1616
I1
sS'digit2successes'
p1617
I1
sS'digit1attempts'
p1618
I2
sS'digit0successes'
p1619
I2
sS'digit4successes'
p1620
I1
sS'digit3successes'
p1621
I1
sS'digit5successes'
p1622
I1
sS'digit6attempts'
p1623
I2
sS'digit9attempts'
p1624
I2
sS'digit0attempts'
p1625
I3
sS'digit3attempts'
p1626
I2
sS'digit2attempts'
p1627
I2
sS'digit5attempts'
p1628
I2
sS'digit7attempts'
p1629
I2
sS'numCoins'
p1630
I2
sS'digit8attempts'
p1631
I2
sS'digit1successes'
p1632
I1
sS'logins'
p1633
I1
sS'digit4attempts'
p1634
I2
sS'currDigitDict'
p1635
(lp1636
I0
aI1
aI2
aI3
aI4
aI5
aI6
aI7
aI8
aI9
assS'kobab'
p1637
(dp1638
S'logins'
p1639
I1
sS'currDigitDict'
p1640
(lp1641
I0
aI1
aI2
asS'numCoins'
p1642
I0
ssS'Hallaw'
p1643
(dp1644
S'digit2successes'
p1645
I1
sS'logins'
p1646
I1
sS'digit0successes'
p1647
I1
sS'digit3successes'
p1648
I1
sS'digit5successes'
p1649
I1
sS'digit4successes'
p1650
I1
sS'digit0attempts'
p1651
I2
sS'digit3attempts'
p1652
I2
sS'digit2attempts'
p1653
I2
sS'digit1attempts'
p1654
I2
sS'numCoins'
p1655
I6
sS'digit5attempts'
p1656
I2
sS'digit1successes'
p1657
I1
sS'digit4attempts'
p1658
I2
sS'currDigitDict'
p1659
(lp1660
I0
aI1
aI2
aI3
aI4
aI5
aI6
aI7
aI8
aI9
assS'Another tester'
p1661
(dp1662
S'digit2successes'
p1663
I1
sS'logins'
p1664
I1
sS'digit0successes'
p1665
I1
sS'digit0attempts'
p1666
I2
sS'digit1attempts'
p1667
I2
sS'digit2attempts'
p1668
I2
sS'numCoins'
p1669
I1
sS'currDigitDict'
p1670
(lp1671
I0
aI1
aI2
assS'testman'
p1672
(dp1673
S'digit2successes'
p1674
I1
sS'logins'
p1675
I1
sS'digit0successes'
p1676
I1
sS'digit3successes'
p1677
I1
sS'digit0attempts'
p1678
I3
sS'digit3attempts'
p1679
I2
sS'digit2attempts'
p1680
I3
sS'digit1attempts'
p1681
I3
sS'numCoins'
p1682
I4
sS'digit1successes'
p1683
I1
sS'currDigitDict'
p1684
(lp1685
I0
aI1
aI2
aI3
aI4
aI5
assS'sdlfsdjkfjsdkljf'
p1686
(dp1687
S'logins'
p1688
I1
sS'digit0attempts'
p1689
I2
sS'currDigitDict'
p1690
(lp1691
I0
aI1
aI2
asS'numCoins'
p1692
I0
ss.