(dp0
S'Turkey'
p1
(dp2
S'logins'
p3
I1
sS'digit0attempts'
p4
I2
sS'digit1attempts'
p5
I2
sS'digit2attempts'
p6
I2
sS'numCoins'
p7
I0
sS'currDigitDict'
p8
(lp9
I0
aI1
aI2
assS''
p10
(dp11
S'logins'
p12
I2
sS'numCoins'
p13
I0
sS'currDigitDict'
p14
(lp15
I0
aI1
aI2
assS'hehehe'
p16
(dp17
S'digit2successes'
p18
I1
sS'digit0attempts'
p19
I2
sS'logins'
p20
I1
sS'digit0successes'
p21
I1
sS'digit1attempts'
p22
I2
sS'digit2attempts'
p23
I2
sS'numCoins'
p24
I3
sS'digit1successes'
p25
I1
sS'currDigitDict'
p26
(lp27
I0
aI1
aI2
aI3
aI4
aI5
assS'Jackson'
p28
(dp29
S'digit2successes'
p30
I1
sS'logins'
p31
I1
sS'digit0successes'
p32
I1
sS'digit3successes'
p33
I1
sS'digit0attempts'
p34
I2
sS'digit3attempts'
p35
I2
sS'digit2attempts'
p36
I2
sS'digit1attempts'
p37
I2
sS'numCoins'
p38
I4
sS'digit1successes'
p39
I1
sS'currDigitDict'
p40
(lp41
I0
aI1
aI2
aI3
aI4
aI5
assS'Testuser'
p42
(dp43
S'digit0attempts'
p44
I2
sS'logins'
p45
I1
sS'digit0successes'
p46
I1
sS'digit1attempts'
p47
I2
sS'numCoins'
p48
I2
sS'digit1successes'
p49
I1
sS'currDigitDict'
p50
(lp51
I0
aI1
aI2
assS'oohh'
p52
(dp53
S'digit6successes'
p54
I1
sS'digit1attempts'
p55
I3
sS'digit5successes'
p56
I1
sS'digit9attempts'
p57
I2
sS'digit3attempts'
p58
I3
sS'numCoins'
p59
I14
sS'digit4successes'
p60
I1
sS'currDigitDict'
p61
(lp62
I0
aI1
aI2
aI3
aI4
aI5
aI6
aI7
aI8
aI9
asS'digit7successes'
p63
I1
sS'digit6attempts'
p64
I2
sS'digit8successes'
p65
I1
sS'digit5attempts'
p66
I2
sS'digit8attempts'
p67
I2
sS'digit1successes'
p68
I2
sS'digit2successes'
p69
I2
sS'logins'
p70
I1
sS'digit2attempts'
p71
I3
sS'digit4attempts'
p72
I2
sS'digit9successes'
p73
I1
sS'digit0successes'
p74
I2
sS'digit3successes'
p75
I2
sS'digit7attempts'
p76
I2
sS'digit0attempts'
p77
I3
ssS'ijcioffi'
p78
(dp79
S'digit0attempts'
p80
I3
sS'logins'
p81
I1
sS'digit0successes'
p82
I2
sS'digit1attempts'
p83
I2
sS'digit2attempts'
p84
I2
sS'numCoins'
p85
I1
sS'currDigitDict'
p86
(lp87
I0
aI1
aI2
assS'testman'
p88
(dp89
S'digit2successes'
p90
I1
sS'logins'
p91
I1
sS'digit0successes'
p92
I1
sS'digit3successes'
p93
I1
sS'digit0attempts'
p94
I3
sS'digit3attempts'
p95
I2
sS'digit2attempts'
p96
I3
sS'digit1attempts'
p97
I3
sS'numCoins'
p98
I4
sS'digit1successes'
p99
I1
sS'currDigitDict'
p100
(lp101
I0
aI1
aI2
aI3
aI4
aI5
assS'lovable'
p102
(dp103
S'digit2successes'
p104
I1
sS'digit4attempts'
p105
I2
sS'digit6successes'
p106
I1
sS'digit1attempts'
p107
I3
sS'digit0successes'
p108
I2
sS'digit3successes'
p109
I1
sS'digit5successes'
p110
I1
sS'digit6attempts'
p111
I2
sS'digit9attempts'
p112
I2
sS'logins'
p113
I1
sS'digit3attempts'
p114
I2
sS'digit2attempts'
p115
I3
sS'digit5attempts'
p116
I2
sS'digit7attempts'
p117
I2
sS'numCoins'
p118
I0
sS'digit0attempts'
p119
I3
sS'digit8attempts'
p120
I2
sS'digit1successes'
p121
I2
sS'digit4successes'
p122
I1
sS'currDigitDict'
p123
(lp124
I0
aI1
aI2
aI3
aI4
aI5
aI6
aI7
aI8
aI9
assS'bnksdfl'
p125
(dp126
S'digit2successes'
p127
I1
sS'logins'
p128
I1
sS'digit0successes'
p129
I2
sS'digit3successes'
p130
I1
sS'digit5successes'
p131
I1
sS'digit0attempts'
p132
I3
sS'digit3attempts'
p133
I2
sS'digit2attempts'
p134
I2
sS'digit1attempts'
p135
I3
sS'numCoins'
p136
I11
sS'digit5attempts'
p137
I2
sS'digit1successes'
p138
I2
sS'digit4attempts'
p139
I2
sS'currDigitDict'
p140
(lp141
I0
aI1
aI2
aI3
aI4
aI5
assS'connor '
p142
(dp143
S'digit2successes'
p144
I1
sS'logins'
p145
I1
sS'digit0successes'
p146
I1
sS'digit0attempts'
p147
I2
sS'digit1attempts'
p148
I2
sS'digit2attempts'
p149
I3
sS'numCoins'
p150
I2
sS'digit1successes'
p151
I1
sS'currDigitDict'
p152
(lp153
I0
aI1
aI2
aI3
aI4
aI5
assS'Tina'
p154
(dp155
S'digit2successes'
p156
I1
sS'logins'
p157
I1
sS'digit0successes'
p158
I2
sS'digit3successes'
p159
I1
sS'digit5successes'
p160
I1
sS'digit0attempts'
p161
I3
sS'digit3attempts'
p162
I3
sS'digit2attempts'
p163
I2
sS'digit1attempts'
p164
I2
sS'numCoins'
p165
I5
sS'digit5attempts'
p166
I2
sS'digit1successes'
p167
I1
sS'currDigitDict'
p168
(lp169
I0
aI1
aI2
aI3
aI4
aI5
assS'hallaaaaa'
p170
(dp171
S'digit2successes'
p172
I2
sS'logins'
p173
I1
sS'digit0successes'
p174
I3
sS'digit3successes'
p175
I1
sS'digit4attempts'
p176
I3
sS'digit0attempts'
p177
I6
sS'digit3attempts'
p178
I3
sS'digit2attempts'
p179
I5
sS'digit1attempts'
p180
I5
sS'numCoins'
p181
I3
sS'digit5attempts'
p182
I3
sS'digit1successes'
p183
I3
sS'digit4successes'
p184
I2
sS'currDigitDict'
p185
(lp186
I0
aI1
aI2
aI3
aI4
aI5
assS'Isaac'
p187
(dp188
S'logins'
p189
I2
sS'digit0attempts'
p190
I2
sS'digit1attempts'
p191
I2
sS'numCoins'
p192
I1
sS'digit1successes'
p193
I1
sS'currDigitDict'
p194
(lp195
I0
aI1
aI2
assS'kabbito'
p196
(dp197
S'digit2successes'
p198
I1
sS'logins'
p199
I1
sS'digit0attempts'
p200
I2
sS'digit1attempts'
p201
I2
sS'digit2attempts'
p202
I2
sS'numCoins'
p203
I2
sS'digit1successes'
p204
I1
sS'currDigitDict'
p205
(lp206
I0
aI1
aI2
assS'slkdfjasldkf'
p207
(dp208
S'digit2successes'
p209
I1
sS'logins'
p210
I1
sS'digit0successes'
p211
I1
sS'digit3successes'
p212
I1
sS'digit4successes'
p213
I1
sS'digit0attempts'
p214
I2
sS'digit3attempts'
p215
I2
sS'digit2attempts'
p216
I2
sS'digit1attempts'
p217
I2
sS'numCoins'
p218
I9
sS'digit1successes'
p219
I1
sS'digit4attempts'
p220
I2
sS'currDigitDict'
p221
(lp222
I0
aI1
aI2
aI3
aI4
aI5
assS'johnnkk'
p223
(dp224
S'logins'
p225
I1
sS'numCoins'
p226
I0
sS'currDigitDict'
p227
(lp228
I0
aI1
aI2
assS'kevin'
p229
(dp230
S'logins'
p231
I1
sS'numCoins'
p232
I0
sS'currDigitDict'
p233
(lp234
I0
aI1
aI2
assS'Henlo'
p235
(dp236
S'digit2successes'
p237
I1
sS'digit0attempts'
p238
I2
sS'logins'
p239
I1
sS'digit0successes'
p240
I1
sS'digit1attempts'
p241
I2
sS'digit2attempts'
p242
I2
sS'numCoins'
p243
I3
sS'digit1successes'
p244
I1
sS'currDigitDict'
p245
(lp246
I0
aI1
aI2
aI3
aI4
aI5
assS'jose'
p247
(dp248
S'digit6successes'
p249
I2
sS'digit1attempts'
p250
I5
sS'digit5successes'
p251
I3
sS'digit9attempts'
p252
I4
sS'digit3attempts'
p253
I4
sS'numCoins'
p254
I0
sS'digit4successes'
p255
I3
sS'currDigitDict'
p256
(lp257
I0
aI1
aI2
aI3
aI4
aI5
aI6
aI7
aI8
aI9
asS'digit7successes'
p258
I1
sS'digit6attempts'
p259
I4
sS'digit8successes'
p260
I1
sS'digit5attempts'
p261
I4
sS'digit8attempts'
p262
I4
sS'digit1successes'
p263
I3
sS'digit2successes'
p264
I3
sS'logins'
p265
I1
sS'digit2attempts'
p266
I4
sS'digit4attempts'
p267
I4
sS'digit0successes'
p268
I3
sS'digit3successes'
p269
I3
sS'digit7attempts'
p270
I4
sS'digit0attempts'
p271
I5
ssS'Mike'
p272
(dp273
S'logins'
p274
I1
sS'digit0successes'
p275
I1
sS'digit0attempts'
p276
I2
sS'digit1attempts'
p277
I2
sS'numCoins'
p278
I2
sS'digit1successes'
p279
I1
sS'currDigitDict'
p280
(lp281
I0
aI1
aI2
assS'whatup'
p282
(dp283
S'digit6successes'
p284
I1
sS'digit1attempts'
p285
I6
sS'digit5successes'
p286
I2
sS'digit9attempts'
p287
I4
sS'digit3attempts'
p288
I4
sS'numCoins'
p289
I3
sS'digit4successes'
p290
I1
sS'currDigitDict'
p291
(lp292
I0
aI1
aI2
aI3
aI4
aI5
aI6
aI7
aI8
aI9
asS'digit7successes'
p293
I3
sS'digit6attempts'
p294
I4
sS'digit8successes'
p295
I2
sS'digit5attempts'
p296
I4
sS'digit8attempts'
p297
I4
sS'digit1successes'
p298
I4
sS'digit2successes'
p299
I1
sS'logins'
p300
I1
sS'digit2attempts'
p301
I6
sS'digit4attempts'
p302
I4
sS'digit9successes'
p303
I3
sS'digit0successes'
p304
I3
sS'digit3successes'
p305
I2
sS'digit7attempts'
p306
I4
sS'digit0attempts'
p307
I6
ssS'Tester'
p308
(dp309
S'logins'
p310
I1
sS'digit0attempts'
p311
I2
sS'currDigitDict'
p312
(lp313
I0
aI1
aI2
asS'numCoins'
p314
I0
ssS'Vanessa'
p315
(dp316
S'digit6successes'
p317
I1
sS'digit1attempts'
p318
I3
sS'digit5successes'
p319
I1
sS'digit9attempts'
p320
I2
sS'digit3attempts'
p321
I3
sS'numCoins'
p322
I4
sS'digit4successes'
p323
I1
sS'currDigitDict'
p324
(lp325
I0
aI1
aI2
aI3
aI4
aI5
aI6
aI7
aI8
aI9
asS'digit7successes'
p326
I1
sS'digit6attempts'
p327
I2
sS'digit8successes'
p328
I1
sS'digit5attempts'
p329
I2
sS'digit8attempts'
p330
I2
sS'digit1successes'
p331
I2
sS'digit2successes'
p332
I2
sS'logins'
p333
I2
sS'digit2attempts'
p334
I3
sS'digit4attempts'
p335
I2
sS'digit9successes'
p336
I1
sS'digit0successes'
p337
I2
sS'digit3successes'
p338
I2
sS'digit7attempts'
p339
I2
sS'digit0attempts'
p340
I3
ssS'javathehut'
p341
(dp342
S'digit7successes'
p343
I1
sS'digit2successes'
p344
I2
sS'digit6successes'
p345
I2
sS'digit1attempts'
p346
I4
sS'digit0successes'
p347
I1
sS'digit3successes'
p348
I2
sS'digit5successes'
p349
I2
sS'digit6attempts'
p350
I3
sS'digit9attempts'
p351
I3
sS'logins'
p352
I1
sS'digit3attempts'
p353
I3
sS'digit2attempts'
p354
I3
sS'digit5attempts'
p355
I3
sS'digit7attempts'
p356
I3
sS'numCoins'
p357
I0
sS'digit0attempts'
p358
I4
sS'digit8attempts'
p359
I3
sS'digit1successes'
p360
I2
sS'digit4successes'
p361
I2
sS'digit4attempts'
p362
I3
sS'currDigitDict'
p363
(lp364
I0
aI1
aI2
aI3
aI4
aI5
aI6
aI7
aI8
aI9
assS'Andrew'
p365
(dp366
S'logins'
p367
I1
sS'digit0attempts'
p368
I2
sS'numCoins'
p369
I1
sS'currDigitDict'
p370
(lp371
I0
aI1
aI2
asS'digit0successes'
p372
I1
ssS'brandon'
p373
(dp374
S'logins'
p375
I1
sS'digit0successes'
p376
I1
sS'digit0attempts'
p377
I2
sS'digit1attempts'
p378
I2
sS'digit2attempts'
p379
I2
sS'numCoins'
p380
I1
sS'digit1successes'
p381
I1
sS'currDigitDict'
p382
(lp383
I0
aI1
aI2
assS'sdlfjdslkfjsdlk'
p384
(dp385
S'digit7successes'
p386
I1
sS'digit2successes'
p387
I4
sS'digit6successes'
p388
I1
sS'digit1attempts'
p389
I5
sS'digit0successes'
p390
I3
sS'digit3successes'
p391
I4
sS'digit5successes'
p392
I2
sS'digit6attempts'
p393
I2
sS'logins'
p394
I1
sS'digit3attempts'
p395
I5
sS'digit2attempts'
p396
I5
sS'digit5attempts'
p397
I5
sS'digit7attempts'
p398
I2
sS'numCoins'
p399
I8
sS'digit0attempts'
p400
I5
sS'digit8attempts'
p401
I2
sS'digit1successes'
p402
I4
sS'digit4successes'
p403
I1
sS'digit4attempts'
p404
I5
sS'currDigitDict'
p405
(lp406
I0
aI1
aI2
aI3
aI4
aI5
aI6
aI7
aI8
aI9
assS'Joe'
p407
(dp408
S'digit1attempts'
p409
I2
sS'digit5successes'
p410
I1
sS'digit9attempts'
p411
I2
sS'digit3attempts'
p412
I2
sS'numCoins'
p413
I7
sS'digit4successes'
p414
I1
sS'currDigitDict'
p415
(lp416
I0
aI1
aI2
aI3
aI4
aI5
aI6
aI7
aI8
aI9
asS'digit7successes'
p417
I1
sS'digit6attempts'
p418
I2
sS'digit8successes'
p419
I1
sS'digit5attempts'
p420
I2
sS'digit8attempts'
p421
I2
sS'digit1successes'
p422
I1
sS'digit2successes'
p423
I1
sS'logins'
p424
I1
sS'digit2attempts'
p425
I2
sS'digit4attempts'
p426
I2
sS'digit9successes'
p427
I1
sS'digit0successes'
p428
I1
sS'digit3successes'
p429
I1
sS'digit7attempts'
p430
I2
sS'digit0attempts'
p431
I3
ssS'tina'
p432
(dp433
S'logins'
p434
I1
sS'numCoins'
p435
I0
sS'currDigitDict'
p436
(lp437
I0
aI1
aI2
assS'kaboobap'
p438
(dp439
S'digit2successes'
p440
I2
sS'digit4attempts'
p441
I2
sS'digit6successes'
p442
I1
sS'logins'
p443
I1
sS'digit0successes'
p444
I2
sS'digit3successes'
p445
I1
sS'digit5successes'
p446
I1
sS'digit6attempts'
p447
I2
sS'digit0attempts'
p448
I4
sS'digit3attempts'
p449
I2
sS'digit2attempts'
p450
I3
sS'digit1attempts'
p451
I2
sS'numCoins'
p452
I9
sS'digit5attempts'
p453
I2
sS'digit1successes'
p454
I1
sS'digit4successes'
p455
I1
sS'currDigitDict'
p456
(lp457
I0
aI1
aI2
aI3
aI4
aI5
aI6
aI7
aI8
aI9
assS'test'
p458
(dp459
S'digit2successes'
p460
I1
sS'logins'
p461
I1
sS'digit0successes'
p462
I1
sS'digit3successes'
p463
I1
sS'digit0attempts'
p464
I2
sS'digit3attempts'
p465
I2
sS'digit2attempts'
p466
I2
sS'digit1attempts'
p467
I2
sS'numCoins'
p468
I4
sS'digit1successes'
p469
I1
sS'currDigitDict'
p470
(lp471
I0
aI1
aI2
aI3
aI4
aI5
assS'tesrboy'
p472
(dp473
S'logins'
p474
I1
sS'digit0attempts'
p475
I2
sS'numCoins'
p476
I1
sS'currDigitDict'
p477
(lp478
I0
aI1
aI2
asS'digit0successes'
p479
I1
ssS'okokok'
p480
(dp481
S'digit2successes'
p482
I1
sS'digit0attempts'
p483
I2
sS'logins'
p484
I1
sS'digit0successes'
p485
I1
sS'digit1attempts'
p486
I2
sS'digit2attempts'
p487
I2
sS'numCoins'
p488
I3
sS'digit1successes'
p489
I1
sS'currDigitDict'
p490
(lp491
I0
aI1
aI2
aI3
aI4
aI5
assS'jokaman'
p492
(dp493
S'digit2successes'
p494
I2
sS'digit6successes'
p495
I1
sS'digit1attempts'
p496
I3
sS'digit0successes'
p497
I1
sS'digit4successes'
p498
I2
sS'digit3successes'
p499
I1
sS'digit5successes'
p500
I1
sS'digit6attempts'
p501
I2
sS'digit9attempts'
p502
I2
sS'digit8successes'
p503
I1
sS'digit3attempts'
p504
I3
sS'digit2attempts'
p505
I3
sS'digit5attempts'
p506
I2
sS'digit7attempts'
p507
I2
sS'numCoins'
p508
I1
sS'digit0attempts'
p509
I3
sS'digit8attempts'
p510
I2
sS'digit1successes'
p511
I1
sS'logins'
p512
I1
sS'digit4attempts'
p513
I3
sS'currDigitDict'
p514
(lp515
I0
aI1
aI2
aI3
aI4
aI5
aI6
aI7
aI8
aI9
assS'kevinyang'
p516
(dp517
S'logins'
p518
I1
sS'digit0successes'
p519
I1
sS'digit0attempts'
p520
I3
sS'digit1attempts'
p521
I2
sS'digit2attempts'
p522
I2
sS'numCoins'
p523
I1
sS'digit1successes'
p524
I1
sS'currDigitDict'
p525
(lp526
I0
aI1
aI2
assS'habbas'
p527
(dp528
S'digit2successes'
p529
I1
sS'logins'
p530
I1
sS'digit0successes'
p531
I1
sS'digit3successes'
p532
I1
sS'digit0attempts'
p533
I2
sS'digit3attempts'
p534
I2
sS'digit2attempts'
p535
I2
sS'digit1attempts'
p536
I2
sS'numCoins'
p537
I4
sS'digit1successes'
p538
I1
sS'currDigitDict'
p539
(lp540
I0
aI1
aI2
aI3
aI4
aI5
assS'norman'
p541
(dp542
S'digit2successes'
p543
I1
sS'logins'
p544
I1
sS'digit0successes'
p545
I1
sS'digit3successes'
p546
I1
sS'digit0attempts'
p547
I2
sS'digit3attempts'
p548
I2
sS'digit2attempts'
p549
I2
sS'digit1attempts'
p550
I2
sS'numCoins'
p551
I4
sS'digit1successes'
p552
I1
sS'currDigitDict'
p553
(lp554
I0
aI1
aI2
aI3
aI4
aI5
assS'yaha'
p555
(dp556
S'logins'
p557
I1
sS'numCoins'
p558
I0
sS'currDigitDict'
p559
(lp560
I0
aI1
aI2
assS'newUserBaddd'
p561
(dp562
S'digit6successes'
p563
I3
sS'digit1attempts'
p564
I7
sS'digit5successes'
p565
I5
sS'digit9attempts'
p566
I5
sS'digit3attempts'
p567
I7
sS'numCoins'
p568
I1
sS'digit4successes'
p569
I4
sS'currDigitDict'
p570
(lp571
I0
aI1
aI2
aI3
aI4
aI5
aI6
aI7
aI8
aI9
asS'digit7successes'
p572
I1
sS'digit6attempts'
p573
I7
sS'digit8successes'
p574
I3
sS'digit5attempts'
p575
I7
sS'digit8attempts'
p576
I4
sS'digit1successes'
p577
I4
sS'digit2successes'
p578
I4
sS'logins'
p579
I3
sS'digit2attempts'
p580
I7
sS'digit4attempts'
p581
I7
sS'digit9successes'
p582
I4
sS'digit0successes'
p583
I4
sS'digit3successes'
p584
I4
sS'digit7attempts'
p585
I7
sS'digit0attempts'
p586
I8
ssS'asdfasdfds'
p587
(dp588
S'logins'
p589
I1
sS'digit0attempts'
p590
I2
sS'currDigitDict'
p591
(lp592
I0
aI1
aI2
asS'numCoins'
p593
I1
sS'digit0successes'
p594
I1
ssS'Connor'
p595
(dp596
S'digit6successes'
p597
I2
sS'digit1attempts'
p598
I5
sS'digit5successes'
p599
I2
sS'digit9attempts'
p600
I3
sS'digit3attempts'
p601
I4
sS'numCoins'
p602
I7
sS'digit4successes'
p603
I2
sS'currDigitDict'
p604
(lp605
I0
aI1
aI2
aI3
aI4
aI5
aI6
aI7
aI8
aI9
asS'digit7successes'
p606
I1
sS'digit6attempts'
p607
I3
sS'digit8successes'
p608
I2
sS'digit5attempts'
p609
I3
sS'digit8attempts'
p610
I3
sS'digit1successes'
p611
I3
sS'digit2successes'
p612
I3
sS'logins'
p613
I3
sS'digit2attempts'
p614
I4
sS'digit4attempts'
p615
I3
sS'digit9successes'
p616
I2
sS'digit0successes'
p617
I3
sS'digit3successes'
p618
I3
sS'digit7attempts'
p619
I3
sS'digit0attempts'
p620
I5
ssS'plzzzz'
p621
(dp622
S'digit2successes'
p623
I1
sS'logins'
p624
I1
sS'digit0successes'
p625
I1
sS'digit3successes'
p626
I1
sS'digit5successes'
p627
I1
sS'digit4attempts'
p628
I2
sS'digit0attempts'
p629
I2
sS'digit3attempts'
p630
I2
sS'digit2attempts'
p631
I2
sS'digit1attempts'
p632
I2
sS'numCoins'
p633
I11
sS'digit5attempts'
p634
I2
sS'digit1successes'
p635
I1
sS'digit4successes'
p636
I1
sS'currDigitDict'
p637
(lp638
I0
aI1
aI2
aI3
aI4
aI5
aI6
aI7
aI8
aI9
assS'joeeey'
p639
(dp640
S'logins'
p641
I1
sS'currDigitDict'
p642
(lp643
I0
aI1
aI2
asS'numCoins'
p644
I0
ssS'bahooga'
p645
(dp646
S'digit2successes'
p647
I2
sS'logins'
p648
I1
sS'digit0successes'
p649
I2
sS'digit3successes'
p650
I2
sS'digit4successes'
p651
I1
sS'digit0attempts'
p652
I3
sS'digit3attempts'
p653
I3
sS'digit2attempts'
p654
I3
sS'digit1attempts'
p655
I3
sS'numCoins'
p656
I18
sS'digit5attempts'
p657
I2
sS'digit1successes'
p658
I2
sS'digit4attempts'
p659
I2
sS'currDigitDict'
p660
(lp661
I0
aI1
aI2
aI3
aI4
aI5
assS'vanessatest'
p662
(dp663
S'digit2successes'
p664
I1
sS'logins'
p665
I1
sS'digit0successes'
p666
I2
sS'digit3successes'
p667
I1
sS'digit0attempts'
p668
I3
sS'digit3attempts'
p669
I2
sS'digit2attempts'
p670
I2
sS'digit1attempts'
p671
I3
sS'numCoins'
p672
I8
sS'digit5attempts'
p673
I2
sS'digit1successes'
p674
I2
sS'digit4attempts'
p675
I2
sS'currDigitDict'
p676
(lp677
I0
aI1
aI2
aI3
aI4
aI5
assS'jack'
p678
(dp679
S'digit2successes'
p680
I2
sS'logins'
p681
I1
sS'digit0successes'
p682
I2
sS'digit3successes'
p683
I1
sS'digit0attempts'
p684
I3
sS'digit3attempts'
p685
I2
sS'digit2attempts'
p686
I3
sS'digit1attempts'
p687
I3
sS'numCoins'
p688
I1
sS'digit5attempts'
p689
I2
sS'digit1successes'
p690
I1
sS'digit4attempts'
p691
I2
sS'currDigitDict'
p692
(lp693
I0
aI1
aI2
aI3
aI4
aI5
assS'habba!'
p694
(dp695
S'digit2successes'
p696
I1
sS'logins'
p697
I1
sS'digit0attempts'
p698
I2
sS'digit1attempts'
p699
I2
sS'digit2attempts'
p700
I2
sS'numCoins'
p701
I1
sS'currDigitDict'
p702
(lp703
I0
aI1
aI2
assS'connor'
p704
(dp705
S'digit2successes'
p706
I5
sS'digit4attempts'
p707
I5
sS'logins'
p708
I14
sS'digit0successes'
p709
I4
sS'digit3successes'
p710
I4
sS'digit5successes'
p711
I3
sS'digit6attempts'
p712
I2
sS'digit0attempts'
p713
I9
sS'digit3attempts'
p714
I6
sS'digit2attempts'
p715
I7
sS'digit1attempts'
p716
I7
sS'numCoins'
p717
I1
sS'digit5attempts'
p718
I4
sS'digit1successes'
p719
I5
sS'digit4successes'
p720
I3
sS'currDigitDict'
p721
(lp722
I0
aI1
aI2
aI3
aI4
aI5
aI6
aI7
aI8
aI9
assS'ddvsv'
p723
(dp724
S'digit6successes'
p725
I1
sS'digit1attempts'
p726
I3
sS'digit5successes'
p727
I1
sS'digit9attempts'
p728
I2
sS'digit3attempts'
p729
I3
sS'numCoins'
p730
I16
sS'digit4successes'
p731
I1
sS'currDigitDict'
p732
(lp733
I0
aI1
aI2
aI3
aI4
aI5
aI6
aI7
aI8
aI9
asS'digit7successes'
p734
I1
sS'digit6attempts'
p735
I2
sS'digit8successes'
p736
I1
sS'digit5attempts'
p737
I2
sS'digit8attempts'
p738
I2
sS'digit1successes'
p739
I1
sS'digit2successes'
p740
I2
sS'logins'
p741
I1
sS'digit2attempts'
p742
I3
sS'digit4attempts'
p743
I2
sS'digit9successes'
p744
I1
sS'digit0successes'
p745
I2
sS'digit3successes'
p746
I2
sS'digit7attempts'
p747
I2
sS'digit0attempts'
p748
I3
ssS'anotha1'
p749
(dp750
S'digit2successes'
p751
I2
sS'logins'
p752
I1
sS'digit0successes'
p753
I3
sS'digit3successes'
p754
I1
sS'digit0attempts'
p755
I4
sS'digit3attempts'
p756
I3
sS'digit2attempts'
p757
I3
sS'digit1attempts'
p758
I4
sS'numCoins'
p759
I2
sS'digit5attempts'
p760
I3
sS'digit1successes'
p761
I3
sS'digit4attempts'
p762
I3
sS'currDigitDict'
p763
(lp764
I0
aI1
aI2
aI3
aI4
aI5
assS'jabaaaka'
p765
(dp766
S'digit9successes'
p767
I1
sS'digit2successes'
p768
I1
sS'digit1attempts'
p769
I2
sS'digit0successes'
p770
I2
sS'digit4successes'
p771
I1
sS'digit3successes'
p772
I1
sS'digit5successes'
p773
I1
sS'digit6attempts'
p774
I2
sS'digit9attempts'
p775
I2
sS'digit0attempts'
p776
I3
sS'digit3attempts'
p777
I2
sS'digit2attempts'
p778
I2
sS'digit5attempts'
p779
I2
sS'digit7attempts'
p780
I2
sS'numCoins'
p781
I2
sS'digit8attempts'
p782
I2
sS'digit1successes'
p783
I1
sS'logins'
p784
I1
sS'digit4attempts'
p785
I2
sS'currDigitDict'
p786
(lp787
I0
aI1
aI2
aI3
aI4
aI5
aI6
aI7
aI8
aI9
assS'tean the bean'
p788
(dp789
S'digit6successes'
p790
I1
sS'digit1attempts'
p791
I6
sS'digit5successes'
p792
I3
sS'digit9attempts'
p793
I4
sS'digit3attempts'
p794
I5
sS'numCoins'
p795
I4
sS'digit4successes'
p796
I4
sS'currDigitDict'
p797
(lp798
I0
aI1
aI2
aI3
aI4
aI5
aI6
aI7
aI8
aI9
asS'digit7successes'
p799
I1
sS'digit6attempts'
p800
I4
sS'digit8successes'
p801
I1
sS'digit5attempts'
p802
I4
sS'digit8attempts'
p803
I4
sS'digit1successes'
p804
I3
sS'digit2successes'
p805
I3
sS'logins'
p806
I1
sS'digit2attempts'
p807
I6
sS'digit4attempts'
p808
I5
sS'digit9successes'
p809
I2
sS'digit0successes'
p810
I2
sS'digit3successes'
p811
I4
sS'digit7attempts'
p812
I4
sS'digit0attempts'
p813
I6
ssS'jackkiiee'
p814
(dp815
S'digit2successes'
p816
I1
sS'digit0attempts'
p817
I2
sS'logins'
p818
I1
sS'digit0successes'
p819
I1
sS'digit1attempts'
p820
I2
sS'digit2attempts'
p821
I2
sS'numCoins'
p822
I1
sS'currDigitDict'
p823
(lp824
I0
aI1
aI2
assS'gooba'
p825
(dp826
S'digit2successes'
p827
I1
sS'digit0attempts'
p828
I2
sS'logins'
p829
I1
sS'digit0successes'
p830
I1
sS'digit1attempts'
p831
I2
sS'digit2attempts'
p832
I2
sS'numCoins'
p833
I3
sS'digit1successes'
p834
I1
sS'currDigitDict'
p835
(lp836
I0
aI1
aI2
aI3
aI4
aI5
assS'kobab'
p837
(dp838
S'logins'
p839
I1
sS'currDigitDict'
p840
(lp841
I0
aI1
aI2
asS'numCoins'
p842
I0
ssS'Hallaw'
p843
(dp844
S'digit2successes'
p845
I1
sS'logins'
p846
I1
sS'digit0successes'
p847
I1
sS'digit3successes'
p848
I1
sS'digit5successes'
p849
I1
sS'digit4successes'
p850
I1
sS'digit0attempts'
p851
I2
sS'digit3attempts'
p852
I2
sS'digit2attempts'
p853
I2
sS'digit1attempts'
p854
I2
sS'numCoins'
p855
I6
sS'digit5attempts'
p856
I2
sS'digit1successes'
p857
I1
sS'digit4attempts'
p858
I2
sS'currDigitDict'
p859
(lp860
I0
aI1
aI2
aI3
aI4
aI5
aI6
aI7
aI8
aI9
assS'Another tester'
p861
(dp862
S'digit2successes'
p863
I1
sS'logins'
p864
I1
sS'digit0successes'
p865
I1
sS'digit0attempts'
p866
I2
sS'digit1attempts'
p867
I2
sS'digit2attempts'
p868
I2
sS'numCoins'
p869
I1
sS'currDigitDict'
p870
(lp871
I0
aI1
aI2
assS'Isaac C'
p872
(dp873
S'logins'
p874
I1
sS'currDigitDict'
p875
(lp876
I0
aI1
aI2
asS'numCoins'
p877
I0
ssS'klajsdflkajsdlfk'
p878
(dp879
S'digit0attempts'
p880
I2
sS'logins'
p881
I1
sS'digit0successes'
p882
I1
sS'digit1attempts'
p883
I2
sS'digit2attempts'
p884
I2
sS'numCoins'
p885
I1
sS'digit1successes'
p886
I1
sS'currDigitDict'
p887
(lp888
I0
aI1
aI2
assS'sdlfsdjkfjsdkljf'
p889
(dp890
S'logins'
p891
I1
sS'digit0attempts'
p892
I2
sS'currDigitDict'
p893
(lp894
I0
aI1
aI2
asS'numCoins'
p895
I0
ssS'sldkfjsdlkfs'
p896
(dp897
S'logins'
p898
I1
sS'digit0successes'
p899
I1
sS'digit0attempts'
p900
I2
sS'digit1attempts'
p901
I2
sS'digit2attempts'
p902
I2
sS'numCoins'
p903
I1
sS'digit1successes'
p904
I1
sS'currDigitDict'
p905
(lp906
I0
aI1
aI2
assS'vanessatesstplz'
p907
(dp908
S'digit2successes'
p909
I1
sS'logins'
p910
I1
sS'digit0successes'
p911
I1
sS'digit0attempts'
p912
I2
sS'digit1attempts'
p913
I2
sS'digit2attempts'
p914
I2
sS'numCoins'
p915
I3
sS'digit1successes'
p916
I1
sS'currDigitDict'
p917
(lp918
I0
aI1
aI2
aI3
aI4
aI5
ass.