(dp0
S'Turkey'
p1
(dp2
S'logins'
p3
I1
sS'digit0attempts'
p4
I2
sS'digit1attempts'
p5
I2
sS'digit2attempts'
p6
I2
sS'numCoins'
p7
I0
sS'currDigitDict'
p8
(lp9
I0
aI1
aI2
assS'Mike'
p10
(dp11
S'digit0attempts'
p12
I2
sS'logins'
p13
I1
sS'digit0successes'
p14
I1
sS'digit1attempts'
p15
I2
sS'numCoins'
p16
I2
sS'digit1successes'
p17
I1
sS'currDigitDict'
p18
(lp19
I0
aI1
aI2
assS'Jackson'
p20
(dp21
S'digit2successes'
p22
I1
sS'logins'
p23
I1
sS'digit0successes'
p24
I1
sS'digit3successes'
p25
I1
sS'digit0attempts'
p26
I2
sS'digit3attempts'
p27
I2
sS'digit2attempts'
p28
I2
sS'digit1attempts'
p29
I2
sS'numCoins'
p30
I4
sS'digit1successes'
p31
I1
sS'currDigitDict'
p32
(lp33
I0
aI1
aI2
aI3
aI4
aI5
assS'Testuser'
p34
(dp35
S'logins'
p36
I1
sS'digit0successes'
p37
I1
sS'digit0attempts'
p38
I2
sS'digit1attempts'
p39
I2
sS'numCoins'
p40
I2
sS'digit1successes'
p41
I1
sS'currDigitDict'
p42
(lp43
I0
aI1
aI2
assS'oohh'
p44
(dp45
S'digit6successes'
p46
I1
sS'digit1attempts'
p47
I3
sS'digit5successes'
p48
I1
sS'digit9attempts'
p49
I2
sS'digit3attempts'
p50
I3
sS'numCoins'
p51
I14
sS'digit4successes'
p52
I1
sS'currDigitDict'
p53
(lp54
I0
aI1
aI2
aI3
aI4
aI5
aI6
aI7
aI8
aI9
asS'digit7successes'
p55
I1
sS'digit6attempts'
p56
I2
sS'digit8successes'
p57
I1
sS'digit5attempts'
p58
I2
sS'digit8attempts'
p59
I2
sS'digit1successes'
p60
I2
sS'digit2successes'
p61
I2
sS'logins'
p62
I1
sS'digit2attempts'
p63
I3
sS'digit4attempts'
p64
I2
sS'digit9successes'
p65
I1
sS'digit0successes'
p66
I2
sS'digit3successes'
p67
I2
sS'digit7attempts'
p68
I2
sS'digit0attempts'
p69
I3
ssS'Tester'
p70
(dp71
S'logins'
p72
I1
sS'digit0attempts'
p73
I2
sS'numCoins'
p74
I0
sS'currDigitDict'
p75
(lp76
I0
aI1
aI2
assS'connor'
p77
(dp78
S'digit2successes'
p79
I4
sS'logins'
p80
I6
sS'digit0successes'
p81
I3
sS'digit3successes'
p82
I3
sS'digit5successes'
p83
I2
sS'digit4successes'
p84
I2
sS'digit0attempts'
p85
I5
sS'digit3attempts'
p86
I5
sS'digit2attempts'
p87
I5
sS'digit1attempts'
p88
I5
sS'numCoins'
p89
I3
sS'digit5attempts'
p90
I3
sS'digit1successes'
p91
I4
sS'digit4attempts'
p92
I4
sS'currDigitDict'
p93
(lp94
I0
aI1
aI2
aI3
aI4
aI5
aI6
aI7
aI8
aI9
assS'yaha'
p95
(dp96
S'logins'
p97
I1
sS'currDigitDict'
p98
(lp99
I0
aI1
aI2
asS'numCoins'
p100
I0
ssS'kobab'
p101
(dp102
S'logins'
p103
I1
sS'numCoins'
p104
I0
sS'currDigitDict'
p105
(lp106
I0
aI1
aI2
assS'Andrew'
p107
(dp108
S'logins'
p109
I1
sS'digit0attempts'
p110
I2
sS'currDigitDict'
p111
(lp112
I0
aI1
aI2
asS'numCoins'
p113
I1
sS'digit0successes'
p114
I1
ssS'Hallaw'
p115
(dp116
S'digit2successes'
p117
I1
sS'logins'
p118
I1
sS'digit0successes'
p119
I1
sS'digit3successes'
p120
I1
sS'digit5successes'
p121
I1
sS'digit4attempts'
p122
I2
sS'digit0attempts'
p123
I2
sS'digit3attempts'
p124
I2
sS'digit2attempts'
p125
I2
sS'digit1attempts'
p126
I2
sS'numCoins'
p127
I6
sS'digit5attempts'
p128
I2
sS'digit1successes'
p129
I1
sS'digit4successes'
p130
I1
sS'currDigitDict'
p131
(lp132
I0
aI1
aI2
aI3
aI4
aI5
aI6
aI7
aI8
aI9
assS'Another tester'
p133
(dp134
S'digit2successes'
p135
I1
sS'digit0attempts'
p136
I2
sS'logins'
p137
I1
sS'digit0successes'
p138
I1
sS'digit1attempts'
p139
I2
sS'digit2attempts'
p140
I2
sS'numCoins'
p141
I1
sS'currDigitDict'
p142
(lp143
I0
aI1
aI2
assS'Joe'
p144
(dp145
S'digit1attempts'
p146
I2
sS'digit5successes'
p147
I1
sS'digit9attempts'
p148
I2
sS'digit3attempts'
p149
I2
sS'numCoins'
p150
I7
sS'digit4successes'
p151
I1
sS'currDigitDict'
p152
(lp153
I0
aI1
aI2
aI3
aI4
aI5
aI6
aI7
aI8
aI9
asS'digit7successes'
p154
I1
sS'digit6attempts'
p155
I2
sS'digit8successes'
p156
I1
sS'digit5attempts'
p157
I2
sS'digit8attempts'
p158
I2
sS'digit1successes'
p159
I1
sS'digit2successes'
p160
I1
sS'logins'
p161
I1
sS'digit2attempts'
p162
I2
sS'digit4attempts'
p163
I2
sS'digit9successes'
p164
I1
sS'digit0successes'
p165
I1
sS'digit3successes'
p166
I1
sS'digit7attempts'
p167
I2
sS'digit0attempts'
p168
I3
ssS'Tina'
p169
(dp170
S'digit2successes'
p171
I1
sS'logins'
p172
I1
sS'digit0successes'
p173
I2
sS'digit3successes'
p174
I1
sS'digit5successes'
p175
I1
sS'digit0attempts'
p176
I3
sS'digit3attempts'
p177
I3
sS'digit2attempts'
p178
I2
sS'digit1attempts'
p179
I2
sS'numCoins'
p180
I5
sS'digit5attempts'
p181
I2
sS'digit1successes'
p182
I1
sS'currDigitDict'
p183
(lp184
I0
aI1
aI2
aI3
aI4
aI5
assS'Connor'
p185
(dp186
S'digit2successes'
p187
I1
sS'logins'
p188
I1
sS'digit0successes'
p189
I1
sS'digit3successes'
p190
I1
sS'digit0attempts'
p191
I2
sS'digit3attempts'
p192
I2
sS'digit2attempts'
p193
I2
sS'digit1attempts'
p194
I2
sS'numCoins'
p195
I4
sS'digit1successes'
p196
I1
sS'currDigitDict'
p197
(lp198
I0
aI1
aI2
aI3
aI4
aI5
assS'habba!'
p199
(dp200
S'digit2successes'
p201
I1
sS'logins'
p202
I1
sS'digit0attempts'
p203
I2
sS'digit1attempts'
p204
I2
sS'digit2attempts'
p205
I2
sS'numCoins'
p206
I1
sS'currDigitDict'
p207
(lp208
I0
aI1
aI2
assS'joeeey'
p209
(dp210
S'logins'
p211
I1
sS'numCoins'
p212
I0
sS'currDigitDict'
p213
(lp214
I0
aI1
aI2
assS'okokok'
p215
(dp216
S'digit2successes'
p217
I1
sS'logins'
p218
I1
sS'digit0successes'
p219
I1
sS'digit0attempts'
p220
I2
sS'digit1attempts'
p221
I2
sS'digit2attempts'
p222
I2
sS'numCoins'
p223
I3
sS'digit1successes'
p224
I1
sS'currDigitDict'
p225
(lp226
I0
aI1
aI2
aI3
aI4
aI5
assS'kevin'
p227
(dp228
S'logins'
p229
I1
sS'currDigitDict'
p230
(lp231
I0
aI1
aI2
asS'numCoins'
p232
I0
ss.