(dp0
S''
p1
(dp2
S'logins'
p3
I2
sS'currDigitDict'
p4
(lp5
I0
aI1
aI2
asS'numCoins'
p6
I0
ssS'dssdvds'
p7
(dp8
S'logins'
p9
I1
sS'digit0attempts'
p10
I2
sS'numCoins'
p11
I1
sS'currDigitDict'
p12
(lp13
I0
aI1
aI2
asS'digit0successes'
p14
I1
ssS'Testuser'
p15
(dp16
S'logins'
p17
I1
sS'digit0successes'
p18
I1
sS'digit0attempts'
p19
I2
sS'digit1attempts'
p20
I2
sS'numCoins'
p21
I2
sS'digit1successes'
p22
I1
sS'currDigitDict'
p23
(lp24
I0
aI1
aI2
assS'ijcioffi'
p25
(dp26
S'logins'
p27
I1
sS'digit0successes'
p28
I2
sS'digit0attempts'
p29
I3
sS'digit1attempts'
p30
I2
sS'digit2attempts'
p31
I2
sS'numCoins'
p32
I1
sS'currDigitDict'
p33
(lp34
I0
aI1
aI2
assS'habbas'
p35
(dp36
S'digit2successes'
p37
I1
sS'logins'
p38
I1
sS'digit0successes'
p39
I1
sS'digit3successes'
p40
I1
sS'digit0attempts'
p41
I2
sS'digit3attempts'
p42
I2
sS'digit2attempts'
p43
I2
sS'digit1attempts'
p44
I2
sS'numCoins'
p45
I4
sS'digit1successes'
p46
I1
sS'currDigitDict'
p47
(lp48
I0
aI1
aI2
aI3
aI4
aI5
assS'sdfdsfsd'
p49
(dp50
S'digit6successes'
p51
I2
sS'digit1attempts'
p52
I4
sS'digit5successes'
p53
I2
sS'digit9attempts'
p54
I3
sS'digit3attempts'
p55
I3
sS'numCoins'
p56
I36
sS'digit4successes'
p57
I2
sS'currDigitDict'
p58
(lp59
I0
aI1
aI2
aI3
aI4
aI5
aI6
aI7
aI8
aI9
asS'digit7successes'
p60
I1
sS'digit6attempts'
p61
I3
sS'digit8successes'
p62
I2
sS'digit5attempts'
p63
I3
sS'digit8attempts'
p64
I3
sS'digit1successes'
p65
I3
sS'digit2successes'
p66
I3
sS'logins'
p67
I1
sS'digit2attempts'
p68
I4
sS'digit4attempts'
p69
I3
sS'digit9successes'
p70
I2
sS'digit0successes'
p71
I3
sS'digit3successes'
p72
I1
sS'digit7attempts'
p73
I3
sS'digit0attempts'
p74
I4
ssS'hehehe'
p75
(dp76
S'digit2successes'
p77
I1
sS'logins'
p78
I1
sS'digit0successes'
p79
I1
sS'digit0attempts'
p80
I2
sS'digit1attempts'
p81
I2
sS'digit2attempts'
p82
I2
sS'numCoins'
p83
I3
sS'digit1successes'
p84
I1
sS'currDigitDict'
p85
(lp86
I0
aI1
aI2
aI3
aI4
aI5
assS'plseasework'
p87
(dp88
S'digit0attempts'
p89
I2
sS'logins'
p90
I1
sS'digit0successes'
p91
I1
sS'digit1attempts'
p92
I2
sS'digit2attempts'
p93
I2
sS'numCoins'
p94
I1
sS'digit1successes'
p95
I1
sS'currDigitDict'
p96
(lp97
I0
aI1
aI2
assS'anotha1'
p98
(dp99
S'digit2successes'
p100
I2
sS'logins'
p101
I1
sS'digit0successes'
p102
I3
sS'digit3successes'
p103
I1
sS'digit0attempts'
p104
I4
sS'digit3attempts'
p105
I3
sS'digit2attempts'
p106
I3
sS'digit1attempts'
p107
I4
sS'numCoins'
p108
I2
sS'digit5attempts'
p109
I3
sS'digit1successes'
p110
I3
sS'digit4attempts'
p111
I3
sS'currDigitDict'
p112
(lp113
I0
aI1
aI2
aI3
aI4
aI5
assS'jose'
p114
(dp115
S'digit6successes'
p116
I2
sS'digit1attempts'
p117
I5
sS'digit5successes'
p118
I3
sS'digit9attempts'
p119
I4
sS'digit3attempts'
p120
I4
sS'numCoins'
p121
I0
sS'digit4successes'
p122
I3
sS'currDigitDict'
p123
(lp124
I0
aI1
aI2
aI3
aI4
aI5
aI6
aI7
aI8
aI9
asS'digit7successes'
p125
I1
sS'digit6attempts'
p126
I4
sS'digit8successes'
p127
I1
sS'digit5attempts'
p128
I4
sS'digit8attempts'
p129
I4
sS'digit1successes'
p130
I3
sS'digit2successes'
p131
I3
sS'logins'
p132
I1
sS'digit2attempts'
p133
I4
sS'digit4attempts'
p134
I4
sS'digit0successes'
p135
I3
sS'digit3successes'
p136
I3
sS'digit7attempts'
p137
I4
sS'digit0attempts'
p138
I5
ssS'Vanessa'
p139
(dp140
S'digit6successes'
p141
I1
sS'digit1attempts'
p142
I3
sS'digit5successes'
p143
I1
sS'digit9attempts'
p144
I2
sS'digit3attempts'
p145
I3
sS'numCoins'
p146
I4
sS'digit4successes'
p147
I1
sS'currDigitDict'
p148
(lp149
I0
aI1
aI2
aI3
aI4
aI5
aI6
aI7
aI8
aI9
asS'digit7successes'
p150
I1
sS'digit6attempts'
p151
I2
sS'digit8successes'
p152
I1
sS'digit5attempts'
p153
I2
sS'digit8attempts'
p154
I2
sS'digit1successes'
p155
I2
sS'digit2successes'
p156
I2
sS'logins'
p157
I2
sS'digit2attempts'
p158
I3
sS'digit4attempts'
p159
I2
sS'digit9successes'
p160
I1
sS'digit0successes'
p161
I2
sS'digit3successes'
p162
I2
sS'digit7attempts'
p163
I2
sS'digit0attempts'
p164
I3
ssS'sdlfjdslkfjsdlk'
p165
(dp166
S'digit7successes'
p167
I1
sS'digit2successes'
p168
I4
sS'digit4attempts'
p169
I5
sS'digit6successes'
p170
I1
sS'digit1attempts'
p171
I5
sS'digit0successes'
p172
I3
sS'digit3successes'
p173
I4
sS'digit5successes'
p174
I2
sS'digit6attempts'
p175
I2
sS'logins'
p176
I1
sS'digit3attempts'
p177
I5
sS'digit2attempts'
p178
I5
sS'digit5attempts'
p179
I5
sS'digit7attempts'
p180
I2
sS'numCoins'
p181
I8
sS'digit0attempts'
p182
I5
sS'digit8attempts'
p183
I2
sS'digit1successes'
p184
I4
sS'digit4successes'
p185
I1
sS'currDigitDict'
p186
(lp187
I0
aI1
aI2
aI3
aI4
aI5
aI6
aI7
aI8
aI9
assS'cdscsdc'
p188
(dp189
S'digit2successes'
p190
I2
sS'logins'
p191
I1
sS'digit0successes'
p192
I2
sS'digit3successes'
p193
I1
sS'digit0attempts'
p194
I3
sS'digit3attempts'
p195
I2
sS'digit2attempts'
p196
I3
sS'digit1attempts'
p197
I3
sS'numCoins'
p198
I9
sS'digit1successes'
p199
I1
sS'currDigitDict'
p200
(lp201
I0
aI1
aI2
aI3
aI4
aI5
assS'kaboobap'
p202
(dp203
S'digit2successes'
p204
I2
sS'digit6successes'
p205
I1
sS'logins'
p206
I1
sS'digit0successes'
p207
I2
sS'digit3successes'
p208
I1
sS'digit5successes'
p209
I1
sS'digit6attempts'
p210
I2
sS'digit0attempts'
p211
I4
sS'digit3attempts'
p212
I2
sS'digit2attempts'
p213
I3
sS'digit1attempts'
p214
I2
sS'numCoins'
p215
I9
sS'digit5attempts'
p216
I2
sS'digit1successes'
p217
I1
sS'digit4successes'
p218
I1
sS'digit4attempts'
p219
I2
sS'currDigitDict'
p220
(lp221
I0
aI1
aI2
aI3
aI4
aI5
aI6
aI7
aI8
aI9
assS'okokok'
p222
(dp223
S'digit2successes'
p224
I1
sS'logins'
p225
I1
sS'digit0successes'
p226
I1
sS'digit0attempts'
p227
I2
sS'digit1attempts'
p228
I2
sS'digit2attempts'
p229
I2
sS'numCoins'
p230
I3
sS'digit1successes'
p231
I1
sS'currDigitDict'
p232
(lp233
I0
aI1
aI2
aI3
aI4
aI5
assS'jokaman'
p234
(dp235
S'digit2successes'
p236
I2
sS'digit4attempts'
p237
I3
sS'digit6successes'
p238
I1
sS'digit1attempts'
p239
I3
sS'digit0successes'
p240
I1
sS'digit3successes'
p241
I1
sS'digit5successes'
p242
I1
sS'digit6attempts'
p243
I2
sS'digit9attempts'
p244
I2
sS'digit8successes'
p245
I1
sS'digit3attempts'
p246
I3
sS'digit2attempts'
p247
I3
sS'digit5attempts'
p248
I2
sS'digit7attempts'
p249
I2
sS'numCoins'
p250
I1
sS'digit0attempts'
p251
I3
sS'digit8attempts'
p252
I2
sS'digit1successes'
p253
I1
sS'logins'
p254
I1
sS'digit4successes'
p255
I2
sS'currDigitDict'
p256
(lp257
I0
aI1
aI2
aI3
aI4
aI5
aI6
aI7
aI8
aI9
assS'kevinyang'
p258
(dp259
S'digit0attempts'
p260
I3
sS'logins'
p261
I1
sS'digit0successes'
p262
I1
sS'digit1attempts'
p263
I2
sS'digit2attempts'
p264
I2
sS'numCoins'
p265
I1
sS'digit1successes'
p266
I1
sS'currDigitDict'
p267
(lp268
I0
aI1
aI2
assS'ksdfdsfjdslf'
p269
(dp270
S'digit6successes'
p271
I1
sS'digit1attempts'
p272
I5
sS'digit5successes'
p273
I1
sS'digit9attempts'
p274
I2
sS'digit3attempts'
p275
I4
sS'numCoins'
p276
I40
sS'digit4successes'
p277
I2
sS'currDigitDict'
p278
(lp279
I0
aI1
aI2
aI3
aI4
aI5
aI6
aI7
aI8
aI9
asS'digit7successes'
p280
I1
sS'digit6attempts'
p281
I2
sS'digit8successes'
p282
I1
sS'digit5attempts'
p283
I3
sS'digit8attempts'
p284
I2
sS'digit1successes'
p285
I3
sS'digit2successes'
p286
I2
sS'logins'
p287
I1
sS'digit2attempts'
p288
I4
sS'digit4attempts'
p289
I3
sS'digit9successes'
p290
I1
sS'digit0successes'
p291
I3
sS'digit3successes'
p292
I3
sS'digit7attempts'
p293
I2
sS'digit0attempts'
p294
I6
ssS'newTestUser'
p295
(dp296
S'digit1attempts'
p297
I3
sS'digit5successes'
p298
I1
sS'digit9attempts'
p299
I2
sS'digit3attempts'
p300
I3
sS'numCoins'
p301
I18
sS'digit4successes'
p302
I1
sS'currDigitDict'
p303
(lp304
I0
aI1
aI2
aI3
aI4
aI5
aI6
aI7
aI8
aI9
asS'digit7successes'
p305
I1
sS'digit6attempts'
p306
I2
sS'digit8successes'
p307
I1
sS'digit5attempts'
p308
I2
sS'digit8attempts'
p309
I2
sS'digit1successes'
p310
I2
sS'digit2successes'
p311
I1
sS'logins'
p312
I1
sS'digit2attempts'
p313
I3
sS'digit4attempts'
p314
I2
sS'digit9successes'
p315
I1
sS'digit0successes'
p316
I2
sS'digit3successes'
p317
I2
sS'digit7attempts'
p318
I2
sS'digit0attempts'
p319
I3
ssS'sdffw'
p320
(dp321
S'logins'
p322
I1
sS'digit0successes'
p323
I4
sS'digit0attempts'
p324
I5
sS'digit1attempts'
p325
I5
sS'digit2attempts'
p326
I4
sS'numCoins'
p327
I11
sS'digit1successes'
p328
I4
sS'currDigitDict'
p329
(lp330
I0
aI1
aI2
assS'vanessatest'
p331
(dp332
S'digit2successes'
p333
I3
sS'digit1attempts'
p334
I5
sS'digit0successes'
p335
I4
sS'digit4successes'
p336
I1
sS'digit3successes'
p337
I3
sS'digit5successes'
p338
I1
sS'digit6attempts'
p339
I2
sS'digit9attempts'
p340
I2
sS'digit0attempts'
p341
I5
sS'digit3attempts'
p342
I4
sS'digit2attempts'
p343
I4
sS'digit5attempts'
p344
I4
sS'digit7attempts'
p345
I2
sS'numCoins'
p346
I8
sS'digit8attempts'
p347
I2
sS'digit1successes'
p348
I4
sS'logins'
p349
I2
sS'digit4attempts'
p350
I4
sS'currDigitDict'
p351
(lp352
I0
aI1
aI2
aI3
aI4
aI5
aI6
aI7
aI8
aI9
assS'jack'
p353
(dp354
S'digit2successes'
p355
I2
sS'logins'
p356
I1
sS'digit0successes'
p357
I2
sS'digit3successes'
p358
I1
sS'digit0attempts'
p359
I3
sS'digit3attempts'
p360
I2
sS'digit2attempts'
p361
I3
sS'digit1attempts'
p362
I3
sS'numCoins'
p363
I1
sS'digit5attempts'
p364
I2
sS'digit1successes'
p365
I1
sS'digit4attempts'
p366
I2
sS'currDigitDict'
p367
(lp368
I0
aI1
aI2
aI3
aI4
aI5
assS'dfsdfdsf'
p369
(dp370
S'digit0attempts'
p371
I2
sS'logins'
p372
I1
sS'digit0successes'
p373
I1
sS'digit1attempts'
p374
I2
sS'digit2attempts'
p375
I2
sS'numCoins'
p376
I1
sS'digit1successes'
p377
I1
sS'currDigitDict'
p378
(lp379
I0
aI1
aI2
assS'ddvsv'
p380
(dp381
S'digit6successes'
p382
I1
sS'digit1attempts'
p383
I3
sS'digit5successes'
p384
I1
sS'digit9attempts'
p385
I2
sS'digit3attempts'
p386
I3
sS'numCoins'
p387
I16
sS'digit4successes'
p388
I1
sS'currDigitDict'
p389
(lp390
I0
aI1
aI2
aI3
aI4
aI5
aI6
aI7
aI8
aI9
asS'digit7successes'
p391
I1
sS'digit6attempts'
p392
I2
sS'digit8successes'
p393
I1
sS'digit5attempts'
p394
I2
sS'digit8attempts'
p395
I2
sS'digit1successes'
p396
I1
sS'digit2successes'
p397
I2
sS'logins'
p398
I1
sS'digit2attempts'
p399
I3
sS'digit4attempts'
p400
I2
sS'digit9successes'
p401
I1
sS'digit0successes'
p402
I2
sS'digit3successes'
p403
I2
sS'digit7attempts'
p404
I2
sS'digit0attempts'
p405
I3
ssS'habba!'
p406
(dp407
S'digit2successes'
p408
I1
sS'logins'
p409
I1
sS'digit0attempts'
p410
I2
sS'digit1attempts'
p411
I2
sS'digit2attempts'
p412
I2
sS'numCoins'
p413
I1
sS'currDigitDict'
p414
(lp415
I0
aI1
aI2
assS'efwf'
p416
(dp417
S'digit2successes'
p418
I1
sS'logins'
p419
I1
sS'digit0successes'
p420
I1
sS'digit3successes'
p421
I1
sS'digit4attempts'
p422
I2
sS'digit0attempts'
p423
I2
sS'digit3attempts'
p424
I2
sS'digit2attempts'
p425
I2
sS'digit1attempts'
p426
I2
sS'numCoins'
p427
I9
sS'digit1successes'
p428
I1
sS'digit4successes'
p429
I1
sS'currDigitDict'
p430
(lp431
I0
aI1
aI2
aI3
aI4
aI5
assS'fsdfdsbs'
p432
(dp433
S'digit2successes'
p434
I2
sS'logins'
p435
I1
sS'digit0successes'
p436
I3
sS'digit3successes'
p437
I2
sS'digit0attempts'
p438
I4
sS'digit3attempts'
p439
I3
sS'digit2attempts'
p440
I3
sS'digit1attempts'
p441
I3
sS'numCoins'
p442
I6
sS'digit5attempts'
p443
I3
sS'digit1successes'
p444
I2
sS'digit4attempts'
p445
I3
sS'currDigitDict'
p446
(lp447
I0
aI1
aI2
aI3
aI4
aI5
assS'testuser4'
p448
(dp449
S'digit2successes'
p450
I4
sS'logins'
p451
I3
sS'digit0successes'
p452
I4
sS'digit3successes'
p453
I3
sS'digit5successes'
p454
I2
sS'digit4successes'
p455
I1
sS'digit0attempts'
p456
I5
sS'digit3attempts'
p457
I4
sS'digit2attempts'
p458
I5
sS'digit1attempts'
p459
I5
sS'numCoins'
p460
I27
sS'digit5attempts'
p461
I3
sS'digit1successes'
p462
I4
sS'digit4attempts'
p463
I3
sS'currDigitDict'
p464
(lp465
I0
aI1
aI2
aI3
aI4
aI5
aI6
aI7
aI8
aI9
assS'testuser2'
p466
(dp467
S'digit2successes'
p468
I2
sS'logins'
p469
I2
sS'digit0successes'
p470
I2
sS'digit3successes'
p471
I2
sS'digit5successes'
p472
I1
sS'digit4attempts'
p473
I2
sS'digit0attempts'
p474
I3
sS'digit3attempts'
p475
I3
sS'digit2attempts'
p476
I3
sS'digit1attempts'
p477
I3
sS'numCoins'
p478
I10
sS'digit5attempts'
p479
I2
sS'digit1successes'
p480
I2
sS'digit4successes'
p481
I1
sS'currDigitDict'
p482
(lp483
I0
aI1
aI2
aI3
aI4
aI5
aI6
aI7
aI8
aI9
assS'testuser3'
p484
(dp485
S'digit2successes'
p486
I2
sS'logins'
p487
I2
sS'digit0successes'
p488
I3
sS'digit3successes'
p489
I2
sS'digit5successes'
p490
I1
sS'digit0attempts'
p491
I4
sS'digit3attempts'
p492
I3
sS'digit2attempts'
p493
I3
sS'digit1attempts'
p494
I3
sS'numCoins'
p495
I6
sS'digit5attempts'
p496
I2
sS'digit1successes'
p497
I2
sS'digit4attempts'
p498
I2
sS'currDigitDict'
p499
(lp500
I0
aI1
aI2
aI3
aI4
aI5
assS'testuser1'
p501
(dp502
S'digit2successes'
p503
I2
sS'digit6successes'
p504
I1
sS'logins'
p505
I3
sS'digit0successes'
p506
I4
sS'digit3successes'
p507
I2
sS'digit5successes'
p508
I2
sS'digit6attempts'
p509
I2
sS'digit0attempts'
p510
I5
sS'digit3attempts'
p511
I3
sS'digit2attempts'
p512
I3
sS'digit1attempts'
p513
I4
sS'numCoins'
p514
I5
sS'digit5attempts'
p515
I3
sS'digit1successes'
p516
I3
sS'digit4successes'
p517
I1
sS'digit4attempts'
p518
I3
sS'currDigitDict'
p519
(lp520
I0
aI1
aI2
aI3
aI4
aI5
aI6
aI7
aI8
aI9
assS'Turkey'
p521
(dp522
S'logins'
p523
I1
sS'digit0attempts'
p524
I2
sS'digit1attempts'
p525
I2
sS'digit2attempts'
p526
I2
sS'numCoins'
p527
I0
sS'currDigitDict'
p528
(lp529
I0
aI1
aI2
assS'Jackson'
p530
(dp531
S'digit2successes'
p532
I1
sS'logins'
p533
I1
sS'digit0successes'
p534
I1
sS'digit3successes'
p535
I1
sS'digit0attempts'
p536
I2
sS'digit3attempts'
p537
I2
sS'digit2attempts'
p538
I2
sS'digit1attempts'
p539
I2
sS'numCoins'
p540
I4
sS'digit1successes'
p541
I1
sS'currDigitDict'
p542
(lp543
I0
aI1
aI2
aI3
aI4
aI5
assS'vsv'
p544
(dp545
S'digit0attempts'
p546
I6
sS'logins'
p547
I1
sS'digit0successes'
p548
I5
sS'digit1attempts'
p549
I5
sS'digit2attempts'
p550
I5
sS'numCoins'
p551
I10
sS'digit1successes'
p552
I4
sS'currDigitDict'
p553
(lp554
I0
aI1
aI2
assS'retertet'
p555
(dp556
S'logins'
p557
I1
sS'digit0attempts'
p558
I2
sS'currDigitDict'
p559
(lp560
I0
aI1
aI2
asS'numCoins'
p561
I0
ssS'fsdfsdfds'
p562
(dp563
S'digit2successes'
p564
I1
sS'logins'
p565
I1
sS'digit0successes'
p566
I1
sS'digit0attempts'
p567
I2
sS'digit1attempts'
p568
I2
sS'digit2attempts'
p569
I2
sS'numCoins'
p570
I1
sS'currDigitDict'
p571
(lp572
I0
aI1
aI2
assS'bahahasjdfkld'
p573
(dp574
S'logins'
p575
I1
sS'digit0attempts'
p576
I2
sS'currDigitDict'
p577
(lp578
I0
aI1
aI2
asS'numCoins'
p579
I1
sS'digit0successes'
p580
I1
ssS'Tina'
p581
(dp582
S'digit2successes'
p583
I1
sS'logins'
p584
I1
sS'digit0successes'
p585
I2
sS'digit3successes'
p586
I1
sS'digit5successes'
p587
I1
sS'digit0attempts'
p588
I3
sS'digit3attempts'
p589
I3
sS'digit2attempts'
p590
I2
sS'digit1attempts'
p591
I2
sS'numCoins'
p592
I5
sS'digit5attempts'
p593
I2
sS'digit1successes'
p594
I1
sS'currDigitDict'
p595
(lp596
I0
aI1
aI2
aI3
aI4
aI5
assS'sdfdsfdsfsd'
p597
(dp598
S'digit2successes'
p599
I1
sS'logins'
p600
I1
sS'digit0successes'
p601
I1
sS'digit0attempts'
p602
I2
sS'digit1attempts'
p603
I2
sS'digit2attempts'
p604
I2
sS'numCoins'
p605
I3
sS'digit1successes'
p606
I1
sS'currDigitDict'
p607
(lp608
I0
aI1
aI2
aI3
aI4
aI5
assS'tesrboy'
p609
(dp610
S'logins'
p611
I1
sS'digit0attempts'
p612
I2
sS'currDigitDict'
p613
(lp614
I0
aI1
aI2
asS'numCoins'
p615
I1
sS'digit0successes'
p616
I1
ssS'sdfsd'
p617
(dp618
S'logins'
p619
I1
sS'digit0attempts'
p620
I2
sS'currDigitDict'
p621
(lp622
I0
aI1
aI2
asS'numCoins'
p623
I1
sS'digit0successes'
p624
I1
ssS'Mike'
p625
(dp626
S'digit0attempts'
p627
I2
sS'logins'
p628
I1
sS'digit0successes'
p629
I1
sS'digit1attempts'
p630
I2
sS'numCoins'
p631
I2
sS'digit1successes'
p632
I1
sS'currDigitDict'
p633
(lp634
I0
aI1
aI2
assS'whatup'
p635
(dp636
S'digit6successes'
p637
I1
sS'digit1attempts'
p638
I6
sS'digit5successes'
p639
I2
sS'digit9attempts'
p640
I4
sS'digit3attempts'
p641
I4
sS'numCoins'
p642
I3
sS'digit4successes'
p643
I1
sS'currDigitDict'
p644
(lp645
I0
aI1
aI2
aI3
aI4
aI5
aI6
aI7
aI8
aI9
asS'digit7successes'
p646
I3
sS'digit6attempts'
p647
I4
sS'digit8successes'
p648
I2
sS'digit5attempts'
p649
I4
sS'digit8attempts'
p650
I4
sS'digit1successes'
p651
I4
sS'digit2successes'
p652
I1
sS'logins'
p653
I1
sS'digit2attempts'
p654
I6
sS'digit4attempts'
p655
I4
sS'digit9successes'
p656
I3
sS'digit0successes'
p657
I3
sS'digit3successes'
p658
I2
sS'digit7attempts'
p659
I4
sS'digit0attempts'
p660
I6
ssS'vsdvdsvsdv'
p661
(dp662
S'digit2successes'
p663
I1
sS'logins'
p664
I1
sS'digit0successes'
p665
I2
sS'digit3successes'
p666
I1
sS'digit0attempts'
p667
I3
sS'digit3attempts'
p668
I2
sS'digit2attempts'
p669
I3
sS'digit1attempts'
p670
I3
sS'numCoins'
p671
I2
sS'digit1successes'
p672
I1
sS'digit4attempts'
p673
I2
sS'currDigitDict'
p674
(lp675
I0
aI1
aI2
aI3
aI4
aI5
assS'connorhb123'
p676
(dp677
S'digit6successes'
p678
I2
sS'digit1attempts'
p679
I6
sS'digit5successes'
p680
I3
sS'digit9attempts'
p681
I2
sS'digit3attempts'
p682
I6
sS'numCoins'
p683
I18
sS'digit4successes'
p684
I3
sS'currDigitDict'
p685
(lp686
I0
aI1
aI2
aI3
aI4
aI5
aI6
aI7
aI8
aI9
asS'digit6attempts'
p687
I3
sS'digit8successes'
p688
I1
sS'digit5attempts'
p689
I4
sS'digit8attempts'
p690
I2
sS'digit1successes'
p691
I4
sS'digit2successes'
p692
I5
sS'logins'
p693
I3
sS'digit2attempts'
p694
I6
sS'digit4attempts'
p695
I5
sS'digit9successes'
p696
I1
sS'digit0successes'
p697
I3
sS'digit3successes'
p698
I4
sS'digit7attempts'
p699
I2
sS'digit0attempts'
p700
I6
ssS'sfadfasdf'
p701
(dp702
S'digit2successes'
p703
I1
sS'logins'
p704
I1
sS'digit0successes'
p705
I1
sS'digit3successes'
p706
I1
sS'digit4attempts'
p707
I2
sS'digit0attempts'
p708
I2
sS'digit3attempts'
p709
I2
sS'digit2attempts'
p710
I2
sS'digit1attempts'
p711
I2
sS'numCoins'
p712
I9
sS'digit1successes'
p713
I1
sS'digit4successes'
p714
I1
sS'currDigitDict'
p715
(lp716
I0
aI1
aI2
aI3
aI4
aI5
assS'javathehut'
p717
(dp718
S'digit7successes'
p719
I1
sS'digit2successes'
p720
I2
sS'digit4attempts'
p721
I3
sS'digit6successes'
p722
I2
sS'digit1attempts'
p723
I4
sS'digit0successes'
p724
I1
sS'digit3successes'
p725
I2
sS'digit5successes'
p726
I2
sS'digit6attempts'
p727
I3
sS'digit9attempts'
p728
I3
sS'logins'
p729
I1
sS'digit3attempts'
p730
I3
sS'digit2attempts'
p731
I3
sS'digit5attempts'
p732
I3
sS'digit7attempts'
p733
I3
sS'numCoins'
p734
I0
sS'digit0attempts'
p735
I4
sS'digit8attempts'
p736
I3
sS'digit1successes'
p737
I2
sS'digit4successes'
p738
I2
sS'currDigitDict'
p739
(lp740
I0
aI1
aI2
aI3
aI4
aI5
aI6
aI7
aI8
aI9
assS'halalaladsfl'
p741
(dp742
S'logins'
p743
I1
sS'digit0attempts'
p744
I2
sS'digit1attempts'
p745
I2
sS'digit2attempts'
p746
I2
sS'numCoins'
p747
I0
sS'currDigitDict'
p748
(lp749
I0
aI1
aI2
assS'plseas works'
p750
(dp751
S'logins'
p752
I1
sS'currDigitDict'
p753
(lp754
I0
aI1
aI2
asS'numCoins'
p755
I0
ssS'sdfds'
p756
(dp757
S'digit6successes'
p758
I4
sS'digit1attempts'
p759
I6
sS'digit5successes'
p760
I5
sS'digit9attempts'
p761
I6
sS'digit3attempts'
p762
I6
sS'numCoins'
p763
I95
sS'digit4successes'
p764
I5
sS'currDigitDict'
p765
(lp766
I0
aI1
aI2
aI3
aI4
aI5
aI6
aI7
aI8
aI9
asS'digit7successes'
p767
I1
sS'digit6attempts'
p768
I6
sS'digit8successes'
p769
I5
sS'digit5attempts'
p770
I6
sS'digit8attempts'
p771
I6
sS'digit1successes'
p772
I5
sS'digit2successes'
p773
I5
sS'logins'
p774
I1
sS'digit2attempts'
p775
I6
sS'digit4attempts'
p776
I6
sS'digit9successes'
p777
I5
sS'digit0successes'
p778
I6
sS'digit3successes'
p779
I5
sS'digit7attempts'
p780
I6
sS'digit0attempts'
p781
I7
ssS'Joe'
p782
(dp783
S'digit1attempts'
p784
I2
sS'digit5successes'
p785
I1
sS'digit9attempts'
p786
I2
sS'digit3attempts'
p787
I2
sS'numCoins'
p788
I7
sS'digit4successes'
p789
I1
sS'currDigitDict'
p790
(lp791
I0
aI1
aI2
aI3
aI4
aI5
aI6
aI7
aI8
aI9
asS'digit7successes'
p792
I1
sS'digit6attempts'
p793
I2
sS'digit8successes'
p794
I1
sS'digit5attempts'
p795
I2
sS'digit8attempts'
p796
I2
sS'digit1successes'
p797
I1
sS'digit2successes'
p798
I1
sS'logins'
p799
I1
sS'digit2attempts'
p800
I2
sS'digit4attempts'
p801
I2
sS'digit9successes'
p802
I1
sS'digit0successes'
p803
I1
sS'digit3successes'
p804
I1
sS'digit7attempts'
p805
I2
sS'digit0attempts'
p806
I3
ssS'asjdfjsda'
p807
(dp808
S'digit1attempts'
p809
I3
sS'digit5successes'
p810
I1
sS'digit9attempts'
p811
I2
sS'digit3attempts'
p812
I3
sS'numCoins'
p813
I21
sS'digit4successes'
p814
I2
sS'currDigitDict'
p815
(lp816
I0
aI1
aI2
aI3
aI4
aI5
aI6
aI7
aI8
aI9
asS'digit7successes'
p817
I1
sS'digit6attempts'
p818
I2
sS'digit8successes'
p819
I1
sS'digit5attempts'
p820
I2
sS'digit8attempts'
p821
I2
sS'digit1successes'
p822
I2
sS'digit2successes'
p823
I2
sS'logins'
p824
I1
sS'digit2attempts'
p825
I3
sS'digit4attempts'
p826
I3
sS'digit9successes'
p827
I1
sS'digit0successes'
p828
I2
sS'digit3successes'
p829
I2
sS'digit7attempts'
p830
I2
sS'digit0attempts'
p831
I3
ssS'bahooga'
p832
(dp833
S'digit2successes'
p834
I2
sS'logins'
p835
I1
sS'digit0successes'
p836
I2
sS'digit3successes'
p837
I2
sS'digit4attempts'
p838
I2
sS'digit0attempts'
p839
I3
sS'digit3attempts'
p840
I3
sS'digit2attempts'
p841
I3
sS'digit1attempts'
p842
I3
sS'numCoins'
p843
I18
sS'digit5attempts'
p844
I2
sS'digit1successes'
p845
I2
sS'digit4successes'
p846
I1
sS'currDigitDict'
p847
(lp848
I0
aI1
aI2
aI3
aI4
aI5
assS'jackkiiee'
p849
(dp850
S'digit2successes'
p851
I1
sS'logins'
p852
I1
sS'digit0successes'
p853
I1
sS'digit0attempts'
p854
I2
sS'digit1attempts'
p855
I2
sS'digit2attempts'
p856
I2
sS'numCoins'
p857
I1
sS'currDigitDict'
p858
(lp859
I0
aI1
aI2
assS'fewgwegweg'
p860
(dp861
S'logins'
p862
I1
sS'currDigitDict'
p863
(lp864
I0
aI1
aI2
asS'numCoins'
p865
I0
ssS'werewrewrwr'
p866
(dp867
S'logins'
p868
I1
sS'digit0attempts'
p869
I2
sS'digit1attempts'
p870
I2
sS'numCoins'
p871
I0
sS'currDigitDict'
p872
(lp873
I0
aI1
aI2
assS'fdsfdsfdsfdsf'
p874
(dp875
S'logins'
p876
I1
sS'digit0successes'
p877
I2
sS'digit0attempts'
p878
I3
sS'digit1attempts'
p879
I3
sS'digit2attempts'
p880
I2
sS'numCoins'
p881
I0
sS'currDigitDict'
p882
(lp883
I0
aI1
aI2
assS'sdlkfjsdfsdf'
p884
(dp885
S'digit2successes'
p886
I1
sS'digit0attempts'
p887
I3
sS'logins'
p888
I1
sS'digit0successes'
p889
I1
sS'digit5successes'
p890
I1
sS'digit1attempts'
p891
I3
sS'digit3attempts'
p892
I2
sS'digit2attempts'
p893
I2
sS'digit5attempts'
p894
I2
sS'numCoins'
p895
I0
sS'digit1successes'
p896
I1
sS'digit4attempts'
p897
I2
sS'currDigitDict'
p898
(lp899
I0
aI1
aI2
aI3
aI4
aI5
assS'plzwork2394324'
p900
(dp901
S'digit0attempts'
p902
I5
sS'logins'
p903
I1
sS'digit0successes'
p904
I4
sS'digit1attempts'
p905
I5
sS'digit2attempts'
p906
I4
sS'numCoins'
p907
I7
sS'digit1successes'
p908
I4
sS'currDigitDict'
p909
(lp910
I0
aI1
aI2
assS'ksdfjdslkfds'
p911
(dp912
S'logins'
p913
I1
sS'digit0attempts'
p914
I2
sS'digit1attempts'
p915
I2
sS'digit2attempts'
p916
I2
sS'numCoins'
p917
I0
sS'currDigitDict'
p918
(lp919
I0
aI1
aI2
assS'vsdvsdv'
p920
(dp921
S'digit2successes'
p922
I1
sS'digit0attempts'
p923
I5
sS'logins'
p924
I2
sS'digit0successes'
p925
I4
sS'digit1attempts'
p926
I4
sS'digit2attempts'
p927
I4
sS'numCoins'
p928
I3
sS'digit1successes'
p929
I1
sS'currDigitDict'
p930
(lp931
I0
aI1
aI2
aI3
aI4
aI5
assS'mmlmkmkm'
p932
(dp933
S'digit2successes'
p934
I1
sS'logins'
p935
I1
sS'digit0successes'
p936
I1
sS'digit3successes'
p937
I1
sS'digit4attempts'
p938
I2
sS'digit0attempts'
p939
I2
sS'digit3attempts'
p940
I2
sS'digit2attempts'
p941
I2
sS'digit1attempts'
p942
I2
sS'numCoins'
p943
I9
sS'digit1successes'
p944
I1
sS'digit4successes'
p945
I1
sS'currDigitDict'
p946
(lp947
I0
aI1
aI2
aI3
aI4
aI5
assS'yessssirrrr'
p948
(dp949
S'digit0attempts'
p950
I2
sS'logins'
p951
I1
sS'digit0successes'
p952
I1
sS'digit1attempts'
p953
I2
sS'numCoins'
p954
I0
sS'currDigitDict'
p955
(lp956
I0
aI1
aI2
assS'oohh'
p957
(dp958
S'digit6successes'
p959
I1
sS'digit1attempts'
p960
I3
sS'digit5successes'
p961
I1
sS'digit9attempts'
p962
I2
sS'digit3attempts'
p963
I3
sS'numCoins'
p964
I14
sS'digit4successes'
p965
I1
sS'currDigitDict'
p966
(lp967
I0
aI1
aI2
aI3
aI4
aI5
aI6
aI7
aI8
aI9
asS'digit7successes'
p968
I1
sS'digit6attempts'
p969
I2
sS'digit8successes'
p970
I1
sS'digit5attempts'
p971
I2
sS'digit8attempts'
p972
I2
sS'digit1successes'
p973
I2
sS'digit2successes'
p974
I2
sS'logins'
p975
I1
sS'digit2attempts'
p976
I3
sS'digit4attempts'
p977
I2
sS'digit9successes'
p978
I1
sS'digit0successes'
p979
I2
sS'digit3successes'
p980
I2
sS'digit7attempts'
p981
I2
sS'digit0attempts'
p982
I3
ssS'lovable'
p983
(dp984
S'digit2successes'
p985
I1
sS'digit6successes'
p986
I1
sS'digit1attempts'
p987
I3
sS'digit0successes'
p988
I2
sS'digit3successes'
p989
I1
sS'digit5successes'
p990
I1
sS'digit6attempts'
p991
I2
sS'digit9attempts'
p992
I2
sS'logins'
p993
I1
sS'digit3attempts'
p994
I2
sS'digit2attempts'
p995
I3
sS'digit5attempts'
p996
I2
sS'digit7attempts'
p997
I2
sS'numCoins'
p998
I0
sS'digit0attempts'
p999
I3
sS'digit8attempts'
p1000
I2
sS'digit1successes'
p1001
I2
sS'digit4successes'
p1002
I1
sS'digit4attempts'
p1003
I2
sS'currDigitDict'
p1004
(lp1005
I0
aI1
aI2
aI3
aI4
aI5
aI6
aI7
aI8
aI9
assS'bnksdfl'
p1006
(dp1007
S'digit2successes'
p1008
I1
sS'logins'
p1009
I1
sS'digit0successes'
p1010
I2
sS'digit3successes'
p1011
I1
sS'digit5successes'
p1012
I1
sS'digit0attempts'
p1013
I3
sS'digit3attempts'
p1014
I2
sS'digit2attempts'
p1015
I2
sS'digit1attempts'
p1016
I3
sS'numCoins'
p1017
I11
sS'digit5attempts'
p1018
I2
sS'digit1successes'
p1019
I2
sS'digit4attempts'
p1020
I2
sS'currDigitDict'
p1021
(lp1022
I0
aI1
aI2
aI3
aI4
aI5
assS'Isaac'
p1023
(dp1024
S'logins'
p1025
I2
sS'digit0attempts'
p1026
I2
sS'digit1attempts'
p1027
I2
sS'numCoins'
p1028
I1
sS'digit1successes'
p1029
I1
sS'currDigitDict'
p1030
(lp1031
I0
aI1
aI2
assS'Henlo'
p1032
(dp1033
S'digit2successes'
p1034
I1
sS'logins'
p1035
I1
sS'digit0successes'
p1036
I1
sS'digit0attempts'
p1037
I2
sS'digit1attempts'
p1038
I2
sS'digit2attempts'
p1039
I2
sS'numCoins'
p1040
I3
sS'digit1successes'
p1041
I1
sS'currDigitDict'
p1042
(lp1043
I0
aI1
aI2
aI3
aI4
aI5
assS'yayaysek!'
p1044
(dp1045
S'digit2successes'
p1046
I1
sS'logins'
p1047
I1
sS'digit0successes'
p1048
I1
sS'digit3successes'
p1049
I1
sS'digit5successes'
p1050
I1
sS'digit0attempts'
p1051
I2
sS'digit3attempts'
p1052
I2
sS'digit2attempts'
p1053
I2
sS'digit1attempts'
p1054
I2
sS'numCoins'
p1055
I4
sS'digit5attempts'
p1056
I2
sS'digit1successes'
p1057
I1
sS'digit4attempts'
p1058
I2
sS'currDigitDict'
p1059
(lp1060
I0
aI1
aI2
aI3
aI4
aI5
assS'dfewrwe'
p1061
(dp1062
S'logins'
p1063
I1
sS'numCoins'
p1064
I0
sS'currDigitDict'
p1065
(lp1066
I0
aI1
aI2
assS'yesssirree!'
p1067
(dp1068
S'logins'
p1069
I1
sS'digit0attempts'
p1070
I2
sS'numCoins'
p1071
I0
sS'currDigitDict'
p1072
(lp1073
I0
aI1
aI2
assS'dsfsdfs'
p1074
(dp1075
S'digit2successes'
p1076
I1
sS'logins'
p1077
I1
sS'digit0successes'
p1078
I1
sS'digit3successes'
p1079
I1
sS'digit5successes'
p1080
I1
sS'digit4attempts'
p1081
I2
sS'digit0attempts'
p1082
I2
sS'digit3attempts'
p1083
I2
sS'digit2attempts'
p1084
I2
sS'digit1attempts'
p1085
I2
sS'numCoins'
p1086
I10
sS'digit5attempts'
p1087
I2
sS'digit1successes'
p1088
I1
sS'digit4successes'
p1089
I1
sS'currDigitDict'
p1090
(lp1091
I0
aI1
aI2
aI3
aI4
aI5
aI6
aI7
aI8
aI9
assS'tina'
p1092
(dp1093
S'logins'
p1094
I1
sS'currDigitDict'
p1095
(lp1096
I0
aI1
aI2
asS'numCoins'
p1097
I0
ssS'Connor'
p1098
(dp1099
S'digit6successes'
p1100
I2
sS'digit1attempts'
p1101
I5
sS'digit5successes'
p1102
I2
sS'digit9attempts'
p1103
I3
sS'digit3attempts'
p1104
I4
sS'numCoins'
p1105
I7
sS'digit4successes'
p1106
I2
sS'currDigitDict'
p1107
(lp1108
I0
aI1
aI2
aI3
aI4
aI5
aI6
aI7
aI8
aI9
asS'digit7successes'
p1109
I1
sS'digit6attempts'
p1110
I3
sS'digit8successes'
p1111
I2
sS'digit5attempts'
p1112
I3
sS'digit8attempts'
p1113
I3
sS'digit1successes'
p1114
I3
sS'digit2successes'
p1115
I3
sS'logins'
p1116
I3
sS'digit2attempts'
p1117
I4
sS'digit4attempts'
p1118
I3
sS'digit9successes'
p1119
I2
sS'digit0successes'
p1120
I3
sS'digit3successes'
p1121
I3
sS'digit7attempts'
p1122
I3
sS'digit0attempts'
p1123
I5
ssS'yaha'
p1124
(dp1125
S'logins'
p1126
I1
sS'currDigitDict'
p1127
(lp1128
I0
aI1
aI2
asS'numCoins'
p1129
I0
ssS'newUserBaddd'
p1130
(dp1131
S'digit6successes'
p1132
I3
sS'digit1attempts'
p1133
I7
sS'digit5successes'
p1134
I5
sS'digit9attempts'
p1135
I5
sS'digit3attempts'
p1136
I7
sS'numCoins'
p1137
I1
sS'digit4successes'
p1138
I4
sS'currDigitDict'
p1139
(lp1140
I0
aI1
aI2
aI3
aI4
aI5
aI6
aI7
aI8
aI9
asS'digit7successes'
p1141
I1
sS'digit6attempts'
p1142
I7
sS'digit8successes'
p1143
I3
sS'digit5attempts'
p1144
I7
sS'digit8attempts'
p1145
I4
sS'digit1successes'
p1146
I4
sS'digit2successes'
p1147
I4
sS'logins'
p1148
I3
sS'digit2attempts'
p1149
I7
sS'digit4attempts'
p1150
I7
sS'digit9successes'
p1151
I4
sS'digit0successes'
p1152
I4
sS'digit3successes'
p1153
I4
sS'digit7attempts'
p1154
I7
sS'digit0attempts'
p1155
I8
ssS'asdfasdfds'
p1156
(dp1157
S'logins'
p1158
I1
sS'digit0attempts'
p1159
I2
sS'numCoins'
p1160
I1
sS'currDigitDict'
p1161
(lp1162
I0
aI1
aI2
asS'digit0successes'
p1163
I1
ssS'sdf'
p1164
(dp1165
S'digit2successes'
p1166
I1
sS'logins'
p1167
I1
sS'digit0successes'
p1168
I1
sS'digit3successes'
p1169
I1
sS'digit5successes'
p1170
I1
sS'digit4attempts'
p1171
I2
sS'digit0attempts'
p1172
I2
sS'digit3attempts'
p1173
I2
sS'digit2attempts'
p1174
I2
sS'digit1attempts'
p1175
I2
sS'numCoins'
p1176
I10
sS'digit5attempts'
p1177
I2
sS'digit1successes'
p1178
I1
sS'digit4successes'
p1179
I1
sS'currDigitDict'
p1180
(lp1181
I0
aI1
aI2
aI3
aI4
aI5
aI6
aI7
aI8
aI9
assS'vanessatesstplz'
p1182
(dp1183
S'digit2successes'
p1184
I1
sS'digit0attempts'
p1185
I2
sS'logins'
p1186
I1
sS'digit0successes'
p1187
I1
sS'digit1attempts'
p1188
I2
sS'digit2attempts'
p1189
I2
sS'numCoins'
p1190
I3
sS'digit1successes'
p1191
I1
sS'currDigitDict'
p1192
(lp1193
I0
aI1
aI2
aI3
aI4
aI5
assS'sldkfjsdlkfs'
p1194
(dp1195
S'digit0attempts'
p1196
I2
sS'logins'
p1197
I1
sS'digit0successes'
p1198
I1
sS'digit1attempts'
p1199
I2
sS'digit2attempts'
p1200
I2
sS'numCoins'
p1201
I1
sS'digit1successes'
p1202
I1
sS'currDigitDict'
p1203
(lp1204
I0
aI1
aI2
assS'johnnkk'
p1205
(dp1206
S'logins'
p1207
I1
sS'currDigitDict'
p1208
(lp1209
I0
aI1
aI2
asS'numCoins'
p1210
I0
ssS'tean the bean'
p1211
(dp1212
S'digit6successes'
p1213
I1
sS'digit1attempts'
p1214
I6
sS'digit5successes'
p1215
I3
sS'digit9attempts'
p1216
I4
sS'digit3attempts'
p1217
I5
sS'numCoins'
p1218
I4
sS'digit4successes'
p1219
I4
sS'currDigitDict'
p1220
(lp1221
I0
aI1
aI2
aI3
aI4
aI5
aI6
aI7
aI8
aI9
asS'digit7successes'
p1222
I1
sS'digit6attempts'
p1223
I4
sS'digit8successes'
p1224
I1
sS'digit5attempts'
p1225
I4
sS'digit8attempts'
p1226
I4
sS'digit1successes'
p1227
I3
sS'digit2successes'
p1228
I3
sS'logins'
p1229
I1
sS'digit2attempts'
p1230
I6
sS'digit4attempts'
p1231
I5
sS'digit9successes'
p1232
I2
sS'digit0successes'
p1233
I2
sS'digit3successes'
p1234
I4
sS'digit7attempts'
p1235
I4
sS'digit0attempts'
p1236
I6
ssS'kdfdsfjdsfl'
p1237
(dp1238
S'logins'
p1239
I1
sS'digit0attempts'
p1240
I3
sS'digit1attempts'
p1241
I3
sS'digit2attempts'
p1242
I2
sS'numCoins'
p1243
I1
sS'digit1successes'
p1244
I2
sS'currDigitDict'
p1245
(lp1246
I0
aI1
aI2
assS'vsdvsdvsdvds'
p1247
(dp1248
S'logins'
p1249
I1
sS'numCoins'
p1250
I0
sS'currDigitDict'
p1251
(lp1252
I0
aI1
aI2
assS'gooba'
p1253
(dp1254
S'digit2successes'
p1255
I1
sS'logins'
p1256
I1
sS'digit0successes'
p1257
I1
sS'digit0attempts'
p1258
I2
sS'digit1attempts'
p1259
I2
sS'digit2attempts'
p1260
I2
sS'numCoins'
p1261
I3
sS'digit1successes'
p1262
I1
sS'currDigitDict'
p1263
(lp1264
I0
aI1
aI2
aI3
aI4
aI5
assS'svsdvs'
p1265
(dp1266
S'digit0attempts'
p1267
I2
sS'logins'
p1268
I1
sS'digit0successes'
p1269
I1
sS'digit1attempts'
p1270
I2
sS'numCoins'
p1271
I0
sS'currDigitDict'
p1272
(lp1273
I0
aI1
aI2
assS'klajsdflkajsdlfk'
p1274
(dp1275
S'logins'
p1276
I1
sS'digit0successes'
p1277
I1
sS'digit0attempts'
p1278
I2
sS'digit1attempts'
p1279
I2
sS'digit2attempts'
p1280
I2
sS'numCoins'
p1281
I1
sS'digit1successes'
p1282
I1
sS'currDigitDict'
p1283
(lp1284
I0
aI1
aI2
assS'rwerewrew'
p1285
(dp1286
S'logins'
p1287
I1
sS'digit0successes'
p1288
I1
sS'digit0attempts'
p1289
I2
sS'digit1attempts'
p1290
I2
sS'numCoins'
p1291
I2
sS'digit1successes'
p1292
I1
sS'currDigitDict'
p1293
(lp1294
I0
aI1
aI2
assS'kaboocha'
p1295
(dp1296
S'logins'
p1297
I1
sS'digit0successes'
p1298
I1
sS'digit0attempts'
p1299
I3
sS'digit1attempts'
p1300
I2
sS'digit2attempts'
p1301
I2
sS'numCoins'
p1302
I0
sS'digit1successes'
p1303
I1
sS'currDigitDict'
p1304
(lp1305
I0
aI1
aI2
assS'dsfsdfadf'
p1306
(dp1307
S'digit0attempts'
p1308
I2
sS'logins'
p1309
I1
sS'digit0successes'
p1310
I1
sS'digit1attempts'
p1311
I2
sS'numCoins'
p1312
I2
sS'digit1successes'
p1313
I1
sS'currDigitDict'
p1314
(lp1315
I0
aI1
aI2
assS'lkjlkjkl'
p1316
(dp1317
S'digit2successes'
p1318
I1
sS'logins'
p1319
I1
sS'digit0successes'
p1320
I1
sS'digit3successes'
p1321
I1
sS'digit4successes'
p1322
I1
sS'digit0attempts'
p1323
I2
sS'digit3attempts'
p1324
I2
sS'digit2attempts'
p1325
I2
sS'digit1attempts'
p1326
I2
sS'numCoins'
p1327
I9
sS'digit1successes'
p1328
I1
sS'digit4attempts'
p1329
I2
sS'currDigitDict'
p1330
(lp1331
I0
aI1
aI2
aI3
aI4
aI5
assS'dababy'
p1332
(dp1333
S'digit2successes'
p1334
I1
sS'logins'
p1335
I1
sS'digit0successes'
p1336
I2
sS'digit3successes'
p1337
I2
sS'digit5successes'
p1338
I1
sS'digit0attempts'
p1339
I3
sS'digit3attempts'
p1340
I3
sS'digit2attempts'
p1341
I3
sS'digit1attempts'
p1342
I3
sS'numCoins'
p1343
I14
sS'digit5attempts'
p1344
I2
sS'digit1successes'
p1345
I2
sS'digit4attempts'
p1346
I2
sS'currDigitDict'
p1347
(lp1348
I0
aI1
aI2
aI3
aI4
aI5
assS'hallaaaaa'
p1349
(dp1350
S'digit2successes'
p1351
I2
sS'logins'
p1352
I1
sS'digit0successes'
p1353
I3
sS'digit3successes'
p1354
I1
sS'digit4successes'
p1355
I2
sS'digit0attempts'
p1356
I6
sS'digit3attempts'
p1357
I3
sS'digit2attempts'
p1358
I5
sS'digit1attempts'
p1359
I5
sS'numCoins'
p1360
I3
sS'digit5attempts'
p1361
I3
sS'digit1successes'
p1362
I3
sS'digit4attempts'
p1363
I3
sS'currDigitDict'
p1364
(lp1365
I0
aI1
aI2
aI3
aI4
aI5
assS'fewfwef'
p1366
(dp1367
S'digit2successes'
p1368
I1
sS'logins'
p1369
I1
sS'digit0successes'
p1370
I2
sS'digit3successes'
p1371
I1
sS'digit4successes'
p1372
I1
sS'digit0attempts'
p1373
I3
sS'digit3attempts'
p1374
I2
sS'digit2attempts'
p1375
I2
sS'digit1attempts'
p1376
I3
sS'numCoins'
p1377
I8
sS'digit5attempts'
p1378
I2
sS'digit1successes'
p1379
I1
sS'digit4attempts'
p1380
I2
sS'currDigitDict'
p1381
(lp1382
I0
aI1
aI2
aI3
aI4
aI5
assS'jljkj'
p1383
(dp1384
S'digit2successes'
p1385
I1
sS'logins'
p1386
I1
sS'digit0successes'
p1387
I1
sS'digit3successes'
p1388
I1
sS'digit5successes'
p1389
I1
sS'digit4successes'
p1390
I1
sS'digit0attempts'
p1391
I2
sS'digit3attempts'
p1392
I2
sS'digit2attempts'
p1393
I2
sS'digit1attempts'
p1394
I2
sS'numCoins'
p1395
I10
sS'digit5attempts'
p1396
I2
sS'digit1successes'
p1397
I1
sS'digit4attempts'
p1398
I2
sS'currDigitDict'
p1399
(lp1400
I0
aI1
aI2
aI3
aI4
aI5
aI6
aI7
aI8
aI9
assS'klklkl'
p1401
(dp1402
S'digit2successes'
p1403
I1
sS'logins'
p1404
I1
sS'digit0successes'
p1405
I1
sS'digit3successes'
p1406
I1
sS'digit4successes'
p1407
I1
sS'digit0attempts'
p1408
I2
sS'digit3attempts'
p1409
I2
sS'digit2attempts'
p1410
I2
sS'digit1attempts'
p1411
I2
sS'numCoins'
p1412
I9
sS'digit1successes'
p1413
I1
sS'digit4attempts'
p1414
I2
sS'currDigitDict'
p1415
(lp1416
I0
aI1
aI2
aI3
aI4
aI5
assS'connor '
p1417
(dp1418
S'digit2successes'
p1419
I1
sS'digit0attempts'
p1420
I2
sS'logins'
p1421
I1
sS'digit0successes'
p1422
I1
sS'digit1attempts'
p1423
I2
sS'digit2attempts'
p1424
I3
sS'numCoins'
p1425
I2
sS'digit1successes'
p1426
I1
sS'currDigitDict'
p1427
(lp1428
I0
aI1
aI2
aI3
aI4
aI5
assS'lsdfjsd'
p1429
(dp1430
S'digit9successes'
p1431
I1
sS'digit2successes'
p1432
I3
sS'digit8successes'
p1433
I1
sS'digit1attempts'
p1434
I4
sS'digit0successes'
p1435
I3
sS'digit4successes'
p1436
I2
sS'digit3successes'
p1437
I1
sS'digit5successes'
p1438
I1
sS'digit6attempts'
p1439
I2
sS'digit9attempts'
p1440
I2
sS'digit0attempts'
p1441
I4
sS'digit3attempts'
p1442
I3
sS'digit2attempts'
p1443
I4
sS'digit5attempts'
p1444
I3
sS'digit7attempts'
p1445
I2
sS'numCoins'
p1446
I4
sS'digit8attempts'
p1447
I2
sS'digit1successes'
p1448
I2
sS'logins'
p1449
I1
sS'digit4attempts'
p1450
I3
sS'currDigitDict'
p1451
(lp1452
I0
aI1
aI2
aI3
aI4
aI5
aI6
aI7
aI8
aI9
assS'kabbito'
p1453
(dp1454
S'digit2successes'
p1455
I1
sS'logins'
p1456
I1
sS'digit0attempts'
p1457
I2
sS'digit1attempts'
p1458
I2
sS'digit2attempts'
p1459
I2
sS'numCoins'
p1460
I2
sS'digit1successes'
p1461
I1
sS'currDigitDict'
p1462
(lp1463
I0
aI1
aI2
assS'slkdfjasldkf'
p1464
(dp1465
S'digit2successes'
p1466
I1
sS'logins'
p1467
I1
sS'digit0successes'
p1468
I1
sS'digit3successes'
p1469
I1
sS'digit4attempts'
p1470
I2
sS'digit0attempts'
p1471
I2
sS'digit3attempts'
p1472
I2
sS'digit2attempts'
p1473
I2
sS'digit1attempts'
p1474
I2
sS'numCoins'
p1475
I9
sS'digit1successes'
p1476
I1
sS'digit4successes'
p1477
I1
sS'currDigitDict'
p1478
(lp1479
I0
aI1
aI2
aI3
aI4
aI5
assS'kevin'
p1480
(dp1481
S'logins'
p1482
I1
sS'currDigitDict'
p1483
(lp1484
I0
aI1
aI2
asS'numCoins'
p1485
I0
ssS'Isaac C'
p1486
(dp1487
S'logins'
p1488
I1
sS'numCoins'
p1489
I0
sS'currDigitDict'
p1490
(lp1491
I0
aI1
aI2
assS'plzwork239420384'
p1492
(dp1493
S'digit6successes'
p1494
I1
sS'digit1attempts'
p1495
I6
sS'digit5successes'
p1496
I1
sS'digit9attempts'
p1497
I2
sS'digit3attempts'
p1498
I3
sS'numCoins'
p1499
I2
sS'digit4successes'
p1500
I2
sS'currDigitDict'
p1501
(lp1502
I0
aI1
aI2
aI3
aI4
aI5
aI6
aI7
aI8
aI9
asS'digit7successes'
p1503
I1
sS'digit6attempts'
p1504
I2
sS'digit8successes'
p1505
I1
sS'digit5attempts'
p1506
I2
sS'digit8attempts'
p1507
I2
sS'digit1successes'
p1508
I4
sS'digit2successes'
p1509
I2
sS'logins'
p1510
I1
sS'digit2attempts'
p1511
I7
sS'digit4attempts'
p1512
I3
sS'digit9successes'
p1513
I1
sS'digit0successes'
p1514
I3
sS'digit3successes'
p1515
I2
sS'digit7attempts'
p1516
I2
sS'digit0attempts'
p1517
I5
ssS'dvdsvdsvsdv'
p1518
(dp1519
S'logins'
p1520
I1
sS'currDigitDict'
p1521
(lp1522
I0
aI1
aI2
asS'numCoins'
p1523
I0
ssS'Tester'
p1524
(dp1525
S'logins'
p1526
I1
sS'digit0attempts'
p1527
I2
sS'numCoins'
p1528
I0
sS'currDigitDict'
p1529
(lp1530
I0
aI1
aI2
assS'Andrew'
p1531
(dp1532
S'logins'
p1533
I1
sS'digit0attempts'
p1534
I2
sS'currDigitDict'
p1535
(lp1536
I0
aI1
aI2
asS'numCoins'
p1537
I1
sS'digit0successes'
p1538
I1
ssS'vsvsvsv'
p1539
(dp1540
S'logins'
p1541
I1
sS'digit0successes'
p1542
I1
sS'digit0attempts'
p1543
I2
sS'digit1attempts'
p1544
I2
sS'digit2attempts'
p1545
I2
sS'numCoins'
p1546
I0
sS'currDigitDict'
p1547
(lp1548
I0
aI1
aI2
assS'brandon'
p1549
(dp1550
S'digit0attempts'
p1551
I2
sS'logins'
p1552
I1
sS'digit0successes'
p1553
I1
sS'digit1attempts'
p1554
I2
sS'digit2attempts'
p1555
I2
sS'numCoins'
p1556
I1
sS'digit1successes'
p1557
I1
sS'currDigitDict'
p1558
(lp1559
I0
aI1
aI2
assS'plzwork1934'
p1560
(dp1561
S'logins'
p1562
I1
sS'numCoins'
p1563
I0
sS'currDigitDict'
p1564
(lp1565
I0
aI1
aI2
assS'test'
p1566
(dp1567
S'digit2successes'
p1568
I1
sS'logins'
p1569
I1
sS'digit0successes'
p1570
I1
sS'digit3successes'
p1571
I1
sS'digit0attempts'
p1572
I2
sS'digit3attempts'
p1573
I2
sS'digit2attempts'
p1574
I2
sS'digit1attempts'
p1575
I2
sS'numCoins'
p1576
I4
sS'digit1successes'
p1577
I1
sS'currDigitDict'
p1578
(lp1579
I0
aI1
aI2
aI3
aI4
aI5
assS'bahookd'
p1580
(dp1581
S'digit6successes'
p1582
I1
sS'digit1attempts'
p1583
I2
sS'digit5successes'
p1584
I1
sS'digit9attempts'
p1585
I2
sS'digit3attempts'
p1586
I2
sS'numCoins'
p1587
I22
sS'digit4successes'
p1588
I1
sS'currDigitDict'
p1589
(lp1590
I0
aI1
aI2
aI3
aI4
aI5
aI6
aI7
aI8
aI9
asS'digit7successes'
p1591
I1
sS'digit6attempts'
p1592
I2
sS'digit8successes'
p1593
I1
sS'digit5attempts'
p1594
I2
sS'digit8attempts'
p1595
I2
sS'digit1successes'
p1596
I1
sS'digit2successes'
p1597
I1
sS'logins'
p1598
I1
sS'digit2attempts'
p1599
I2
sS'digit4attempts'
p1600
I2
sS'digit9successes'
p1601
I1
sS'digit0successes'
p1602
I1
sS'digit3successes'
p1603
I1
sS'digit7attempts'
p1604
I2
sS'digit0attempts'
p1605
I3
ssS'bsbsfbsf'
p1606
(dp1607
S'logins'
p1608
I1
sS'digit0successes'
p1609
I1
sS'digit0attempts'
p1610
I2
sS'digit1attempts'
p1611
I2
sS'numCoins'
p1612
I2
sS'digit1successes'
p1613
I1
sS'currDigitDict'
p1614
(lp1615
I0
aI1
aI2
assS'norman'
p1616
(dp1617
S'digit2successes'
p1618
I1
sS'logins'
p1619
I1
sS'digit0successes'
p1620
I1
sS'digit3successes'
p1621
I1
sS'digit0attempts'
p1622
I2
sS'digit3attempts'
p1623
I2
sS'digit2attempts'
p1624
I2
sS'digit1attempts'
p1625
I2
sS'numCoins'
p1626
I4
sS'digit1successes'
p1627
I1
sS'currDigitDict'
p1628
(lp1629
I0
aI1
aI2
aI3
aI4
aI5
assS'dsfsdf'
p1630
(dp1631
S'digit2successes'
p1632
I1
sS'logins'
p1633
I1
sS'digit0successes'
p1634
I2
sS'digit1attempts'
p1635
I2
sS'digit5successes'
p1636
I1
sS'digit4attempts'
p1637
I2
sS'digit0attempts'
p1638
I3
sS'digit3attempts'
p1639
I2
sS'digit2attempts'
p1640
I2
sS'digit5attempts'
p1641
I2
sS'numCoins'
p1642
I5
sS'digit1successes'
p1643
I1
sS'digit4successes'
p1644
I1
sS'currDigitDict'
p1645
(lp1646
I0
aI1
aI2
aI3
aI4
aI5
assS'connorsfdsfsdf'
p1647
(dp1648
S'logins'
p1649
I1
sS'digit0successes'
p1650
I1
sS'digit0attempts'
p1651
I2
sS'digit1attempts'
p1652
I2
sS'numCoins'
p1653
I0
sS'currDigitDict'
p1654
(lp1655
I0
aI1
aI2
assS'sdlkfjsdlfds'
p1656
(dp1657
S'logins'
p1658
I1
sS'currDigitDict'
p1659
(lp1660
I0
aI1
aI2
asS'numCoins'
p1661
I0
ssS'plzzzz'
p1662
(dp1663
S'digit2successes'
p1664
I1
sS'logins'
p1665
I1
sS'digit0successes'
p1666
I1
sS'digit3successes'
p1667
I1
sS'digit5successes'
p1668
I1
sS'digit4successes'
p1669
I1
sS'digit0attempts'
p1670
I2
sS'digit3attempts'
p1671
I2
sS'digit2attempts'
p1672
I2
sS'digit1attempts'
p1673
I2
sS'numCoins'
p1674
I11
sS'digit5attempts'
p1675
I2
sS'digit1successes'
p1676
I1
sS'digit4attempts'
p1677
I2
sS'currDigitDict'
p1678
(lp1679
I0
aI1
aI2
aI3
aI4
aI5
aI6
aI7
aI8
aI9
assS'joeeey'
p1680
(dp1681
S'logins'
p1682
I1
sS'numCoins'
p1683
I0
sS'currDigitDict'
p1684
(lp1685
I0
aI1
aI2
assS'connor'
p1686
(dp1687
S'digit6successes'
p1688
I1
sS'digit1attempts'
p1689
I10
sS'digit5successes'
p1690
I5
sS'digit9attempts'
p1691
I2
sS'digit3attempts'
p1692
I9
sS'numCoins'
p1693
I0
sS'digit4successes'
p1694
I5
sS'currDigitDict'
p1695
(lp1696
I0
aI1
aI2
aI3
aI4
aI5
aI6
aI7
aI8
aI9
asS'digit7successes'
p1697
I1
sS'digit6attempts'
p1698
I3
sS'digit8successes'
p1699
I1
sS'digit5attempts'
p1700
I6
sS'digit8attempts'
p1701
I2
sS'digit1successes'
p1702
I8
sS'digit2successes'
p1703
I6
sS'logins'
p1704
I17
sS'digit2attempts'
p1705
I10
sS'digit4attempts'
p1706
I7
sS'digit9successes'
p1707
I1
sS'digit0successes'
p1708
I7
sS'digit3successes'
p1709
I6
sS'digit7attempts'
p1710
I2
sS'digit0attempts'
p1711
I12
ssS'jabaaaka'
p1712
(dp1713
S'digit9successes'
p1714
I1
sS'digit2successes'
p1715
I1
sS'digit4attempts'
p1716
I2
sS'digit1attempts'
p1717
I2
sS'digit0successes'
p1718
I2
sS'digit3successes'
p1719
I1
sS'digit5successes'
p1720
I1
sS'digit6attempts'
p1721
I2
sS'digit9attempts'
p1722
I2
sS'digit0attempts'
p1723
I3
sS'digit3attempts'
p1724
I2
sS'digit2attempts'
p1725
I2
sS'digit5attempts'
p1726
I2
sS'digit7attempts'
p1727
I2
sS'numCoins'
p1728
I2
sS'digit8attempts'
p1729
I2
sS'digit1successes'
p1730
I1
sS'logins'
p1731
I1
sS'digit4successes'
p1732
I1
sS'currDigitDict'
p1733
(lp1734
I0
aI1
aI2
aI3
aI4
aI5
aI6
aI7
aI8
aI9
assS'kobab'
p1735
(dp1736
S'logins'
p1737
I1
sS'numCoins'
p1738
I0
sS'currDigitDict'
p1739
(lp1740
I0
aI1
aI2
assS'Hallaw'
p1741
(dp1742
S'digit2successes'
p1743
I1
sS'logins'
p1744
I1
sS'digit0successes'
p1745
I1
sS'digit3successes'
p1746
I1
sS'digit5successes'
p1747
I1
sS'digit4attempts'
p1748
I2
sS'digit0attempts'
p1749
I2
sS'digit3attempts'
p1750
I2
sS'digit2attempts'
p1751
I2
sS'digit1attempts'
p1752
I2
sS'numCoins'
p1753
I6
sS'digit5attempts'
p1754
I2
sS'digit1successes'
p1755
I1
sS'digit4successes'
p1756
I1
sS'currDigitDict'
p1757
(lp1758
I0
aI1
aI2
aI3
aI4
aI5
aI6
aI7
aI8
aI9
assS'Another tester'
p1759
(dp1760
S'digit2successes'
p1761
I1
sS'digit0attempts'
p1762
I2
sS'logins'
p1763
I1
sS'digit0successes'
p1764
I1
sS'digit1attempts'
p1765
I2
sS'digit2attempts'
p1766
I2
sS'numCoins'
p1767
I1
sS'currDigitDict'
p1768
(lp1769
I0
aI1
aI2
assS'testman'
p1770
(dp1771
S'digit2successes'
p1772
I1
sS'logins'
p1773
I1
sS'digit0successes'
p1774
I1
sS'digit3successes'
p1775
I1
sS'digit0attempts'
p1776
I3
sS'digit3attempts'
p1777
I2
sS'digit2attempts'
p1778
I3
sS'digit1attempts'
p1779
I3
sS'numCoins'
p1780
I4
sS'digit1successes'
p1781
I1
sS'currDigitDict'
p1782
(lp1783
I0
aI1
aI2
aI3
aI4
aI5
assS'sdlfsdjkfjsdkljf'
p1784
(dp1785
S'logins'
p1786
I1
sS'digit0attempts'
p1787
I2
sS'numCoins'
p1788
I0
sS'currDigitDict'
p1789
(lp1790
I0
aI1
aI2
ass.